
lockbox.exe:     file format elf32-littleriscv


Disassembly of section .init:

20400000 <_start>:
	.section .init
	.globl _start
	.type _start,@function

_start:
	la gp, _gp
20400000:	5fc01197          	auipc	gp,0x5fc01
20400004:	c2818193          	addi	gp,gp,-984 # 80000c28 <_gp>
	la sp, _sp
20400008:	5fc04117          	auipc	sp,0x5fc04
2040000c:	ff810113          	addi	sp,sp,-8 # 80004000 <_sp>

	/* Load data section */
	la a0, _data_lma
20400010:	00004517          	auipc	a0,0x4
20400014:	c4c50513          	addi	a0,a0,-948 # 20403c5c <__fini_array_end>
	la a1, _data
20400018:	5fc00597          	auipc	a1,0x5fc00
2040001c:	fe858593          	addi	a1,a1,-24 # 80000000 <_data>
	la a2, _edata
20400020:	5fc00617          	auipc	a2,0x5fc00
20400024:	41860613          	addi	a2,a2,1048 # 80000438 <conversion_error>
	bgeu a1, a2, 2f
20400028:	00c5fa63          	bleu	a2,a1,2040003c <_start+0x3c>
1:
	lw t0, (a0)
2040002c:	00052283          	lw	t0,0(a0)
	sw t0, (a1)
20400030:	0055a023          	sw	t0,0(a1)
	addi a0, a0, 4
20400034:	0511                	addi	a0,a0,4
	addi a1, a1, 4
20400036:	0591                	addi	a1,a1,4
	bltu a1, a2, 1b
20400038:	fec5eae3          	bltu	a1,a2,2040002c <_start+0x2c>
2:

	/* Clear bss section */
	la a0, __bss_start
2040003c:	5fc00517          	auipc	a0,0x5fc00
20400040:	3fc50513          	addi	a0,a0,1020 # 80000438 <conversion_error>
	la a1, _end
20400044:	5fc00597          	auipc	a1,0x5fc00
20400048:	45458593          	addi	a1,a1,1108 # 80000498 <_end>
	bgeu a0, a1, 2f
2040004c:	00b57763          	bleu	a1,a0,2040005a <_start+0x5a>
1:
	sw zero, (a0)
20400050:	00052023          	sw	zero,0(a0)
	addi a0, a0, 4
20400054:	0511                	addi	a0,a0,4
	bltu a0, a1, 1b
20400056:	feb56de3          	bltu	a0,a1,20400050 <_start+0x50>
2:

	/* Call global constructors */
	la a0, __libc_fini_array
2040005a:	00003517          	auipc	a0,0x3
2040005e:	02650513          	addi	a0,a0,38 # 20403080 <__libc_fini_array>
	call atexit
20400062:	7d7020ef          	jal	ra,20403038 <atexit>
	call __libc_init_array
20400066:	07a030ef          	jal	ra,204030e0 <__libc_init_array>
	fssr x0
1:
#endif

	/* argc = argv = 0 */
	li a0, 0
2040006a:	4501                	li	a0,0
	li a1, 0
2040006c:	4581                	li	a1,0
	call main
2040006e:	203d                	jal	2040009c <main>
	tail exit
20400070:	7dd0206f          	j	2040304c <exit>

20400074 <_fini>:
	.globl _fini
	.type _init,@function
	.type _fini,@function
_init:
_fini:
	ret
20400074:	8082                	ret

Disassembly of section .text:

20400078 <_GLOBAL__sub_I_Serial>:
    size_t printNumber(unsigned long, uint8_t);
    size_t printFloat(double, uint8_t);
  protected:
    void setWriteError(int err = 1) { write_error = err; }
  public:
    Print() : write_error(0) {}
20400078:	800007b7          	lui	a5,0x80000
2040007c:	45c78793          	addi	a5,a5,1116 # 8000045c <_sp+0xffffc45c>
    virtual int available() = 0;
    virtual int read() = 0;
    virtual int peek() = 0;
    virtual void flush() = 0;

    Stream() {_timeout=1000;}
20400080:	3e800713          	li	a4,1000
20400084:	c798                	sw	a4,8(a5)
#include "HardwareSerial.h"

class UARTClass : public HardwareSerial
{
  public:
    UARTClass(uint32_t base = UART0_BASE_ADDR ) : serbase(reinterpret_cast<uint8_t*>(base)) {}
20400086:	20404737          	lui	a4,0x20404
2040008a:	b2c70713          	addi	a4,a4,-1236 # 20403b2c <_ZTV9UARTClass+0x8>
2040008e:	c398                	sw	a4,0(a5)
20400090:	10013737          	lui	a4,0x10013
20400094:	0007a223          	sw	zero,4(a5)
20400098:	cb98                	sw	a4,16(a5)
UARTClass::write(const uint8_t uc_data)
{

  sio_putchar(uc_data, 1);
  return (1);
}
2040009a:	8082                	ret

2040009c <main>:
 */
int main( void )
{
  //	init();
  // Compute F_CPU inverse, used for millis and micros functions.
  calc_inv(F_CPU/1000, &f_cpu_1000_inv);
2040009c:	800005b7          	lui	a1,0x80000
204000a0:	6511                	lui	a0,0x4
{
204000a2:	1141                	addi	sp,sp,-16
  calc_inv(F_CPU/1000, &f_cpu_1000_inv);
204000a4:	48858593          	addi	a1,a1,1160 # 80000488 <_sp+0xffffc488>
204000a8:	e8050513          	addi	a0,a0,-384 # 3e80 <__stack_size+0x3680>
{
204000ac:	c606                	sw	ra,12(sp)
204000ae:	c422                	sw	s0,8(sp)
  calc_inv(F_CPU/1000, &f_cpu_1000_inv);
204000b0:	147020ef          	jal	ra,204029f6 <calc_inv>
  calc_inv(F_CPU/1000000, &f_cpu_1000000_inv);
204000b4:	800005b7          	lui	a1,0x80000
204000b8:	47c58593          	addi	a1,a1,1148 # 8000047c <_sp+0xffffc47c>
204000bc:	4541                	li	a0,16
204000be:	00000437          	lui	s0,0x0
204000c2:	135020ef          	jal	ra,204029f6 <calc_inv>
  freedom_e300_specific_initialization();
204000c6:	00040413          	mv	s0,s0
204000ca:	655020ef          	jal	ra,20402f1e <_Z36freedom_e300_specific_initializationv>
  setup();
204000ce:	2a95                	jal	20400242 <setup>
  
  do {
    loop();
204000d0:	2649                	jal	20400452 <loop>
    if (serialEventRun)
204000d2:	dc7d                	beqz	s0,204000d0 <main+0x34>
      serialEventRun();
204000d4:	dfc00097          	auipc	ra,0xdfc00
204000d8:	f2c080e7          	jalr	-212(ra) # 0 <__stack_size-0x800>
    loop();
204000dc:	2e9d                	jal	20400452 <loop>
    if (serialEventRun)
204000de:	f87d                	bnez	s0,204000d4 <main+0x38>
204000e0:	bfc5                	j	204000d0 <main+0x34>

204000e2 <_ZN5Print5writeEPKcj>:
    size_t write(const char *str) {
      if (str == NULL) return 0;
      return write((const uint8_t *)str, strlen(str));
    }
    virtual size_t write(const uint8_t *buffer, size_t size);
    size_t write(const char *buffer, size_t size) {
204000e2:	1101                	addi	sp,sp,-32
204000e4:	ce06                	sw	ra,28(sp)
204000e6:	cc22                	sw	s0,24(sp)
204000e8:	1000                	addi	s0,sp,32
204000ea:	fea42623          	sw	a0,-20(s0) # ffffffec <_sp+0x7fffbfec>
204000ee:	feb42423          	sw	a1,-24(s0)
204000f2:	fec42223          	sw	a2,-28(s0)
      return write((const uint8_t *)buffer, size);
204000f6:	fec42783          	lw	a5,-20(s0)
204000fa:	439c                	lw	a5,0(a5)
204000fc:	0791                	addi	a5,a5,4
204000fe:	439c                	lw	a5,0(a5)
20400100:	fe442603          	lw	a2,-28(s0)
20400104:	fe842583          	lw	a1,-24(s0)
20400108:	fec42503          	lw	a0,-20(s0)
2040010c:	9782                	jalr	a5
2040010e:	87aa                	mv	a5,a0
    }
20400110:	853e                	mv	a0,a5
20400112:	838a                	mv	t2,sp
20400114:	40f2                	lw	ra,28(sp)
20400116:	4462                	lw	s0,24(sp)
20400118:	6105                	addi	sp,sp,32
2040011a:	8082                	ret

2040011c <_Z7datahexPKcj>:
LiquidCrystal lcd(rs, en, d4, d5, d6, d7);

// For parsing user input back into a value.
int conversion_error;

uint32_t datahex(const char* string, size_t slength) {
2040011c:	7139                	addi	sp,sp,-64
2040011e:	de22                	sw	s0,60(sp)
20400120:	0080                	addi	s0,sp,64
20400122:	fca42623          	sw	a0,-52(s0)
20400126:	fcb42423          	sw	a1,-56(s0)

    conversion_error = 0;
2040012a:	800007b7          	lui	a5,0x80000
2040012e:	4207ac23          	sw	zero,1080(a5) # 80000438 <_sp+0xffffc438>

    // must be 8 chars, null pointers bad news.
    if(string == NULL || slength != 8) {
20400132:	fcc42783          	lw	a5,-52(s0)
20400136:	c791                	beqz	a5,20400142 <_Z7datahexPKcj+0x26>
20400138:	fc842703          	lw	a4,-56(s0)
2040013c:	47a1                	li	a5,8
2040013e:	00f70963          	beq	a4,a5,20400150 <_Z7datahexPKcj+0x34>
      conversion_error = 1;
20400142:	800007b7          	lui	a5,0x80000
20400146:	4705                	li	a4,1
20400148:	42e7ac23          	sw	a4,1080(a5) # 80000438 <_sp+0xffffc438>
      return 0;
2040014c:	4781                	li	a5,0
2040014e:	a0ed                	j	20400238 <_Z7datahexPKcj+0x11c>
    }

    uint32_t res = 0;
20400150:	fe042623          	sw	zero,-20(s0)

    size_t index = 0;
20400154:	fe042423          	sw	zero,-24(s0)
    while (index < slength) {
20400158:	fe842703          	lw	a4,-24(s0)
2040015c:	fc842783          	lw	a5,-56(s0)
20400160:	0cf77a63          	bleu	a5,a4,20400234 <_Z7datahexPKcj+0x118>
        char c = string[index];
20400164:	fcc42703          	lw	a4,-52(s0)
20400168:	fe842783          	lw	a5,-24(s0)
2040016c:	97ba                	add	a5,a5,a4
2040016e:	0007c783          	lbu	a5,0(a5)
20400172:	fef401a3          	sb	a5,-29(s0)
        int value = 0;
20400176:	fe042223          	sw	zero,-28(s0)
        if(c >= '0' && c <= '9')
2040017a:	fe344703          	lbu	a4,-29(s0)
2040017e:	02f00793          	li	a5,47
20400182:	00e7ff63          	bleu	a4,a5,204001a0 <_Z7datahexPKcj+0x84>
20400186:	fe344703          	lbu	a4,-29(s0)
2040018a:	03900793          	li	a5,57
2040018e:	00e7e963          	bltu	a5,a4,204001a0 <_Z7datahexPKcj+0x84>
          value = (c - '0');
20400192:	fe344783          	lbu	a5,-29(s0)
20400196:	fd078793          	addi	a5,a5,-48
2040019a:	fef42223          	sw	a5,-28(s0)
2040019e:	a8b1                	j	204001fa <_Z7datahexPKcj+0xde>
        else if (c >= 'A' && c <= 'F')
204001a0:	fe344703          	lbu	a4,-29(s0)
204001a4:	04000793          	li	a5,64
204001a8:	00e7ff63          	bleu	a4,a5,204001c6 <_Z7datahexPKcj+0xaa>
204001ac:	fe344703          	lbu	a4,-29(s0)
204001b0:	04600793          	li	a5,70
204001b4:	00e7e963          	bltu	a5,a4,204001c6 <_Z7datahexPKcj+0xaa>
          value = (10 + (c - 'A'));
204001b8:	fe344783          	lbu	a5,-29(s0)
204001bc:	fc978793          	addi	a5,a5,-55
204001c0:	fef42223          	sw	a5,-28(s0)
204001c4:	a81d                	j	204001fa <_Z7datahexPKcj+0xde>
        else if (c >= 'a' && c <= 'f')
204001c6:	fe344703          	lbu	a4,-29(s0)
204001ca:	06000793          	li	a5,96
204001ce:	00e7ff63          	bleu	a4,a5,204001ec <_Z7datahexPKcj+0xd0>
204001d2:	fe344703          	lbu	a4,-29(s0)
204001d6:	06600793          	li	a5,102
204001da:	00e7e963          	bltu	a5,a4,204001ec <_Z7datahexPKcj+0xd0>
          value = (10 + (c - 'a'));
204001de:	fe344783          	lbu	a5,-29(s0)
204001e2:	fa978793          	addi	a5,a5,-87
204001e6:	fef42223          	sw	a5,-28(s0)
204001ea:	a801                	j	204001fa <_Z7datahexPKcj+0xde>
        else {
          // non-hex digit
          conversion_error = 1;
204001ec:	800007b7          	lui	a5,0x80000
204001f0:	4705                	li	a4,1
204001f2:	42e7ac23          	sw	a4,1080(a5) # 80000438 <_sp+0xffffc438>
          return 0;
204001f6:	4781                	li	a5,0
204001f8:	a081                	j	20400238 <_Z7datahexPKcj+0x11c>
        }

        uint32_t shift =  ((7 - index) * 4);
204001fa:	fe842703          	lw	a4,-24(s0)
204001fe:	4781                	li	a5,0
20400200:	8f99                	sub	a5,a5,a4
20400202:	078a                	slli	a5,a5,0x2
20400204:	07f1                	addi	a5,a5,28
20400206:	fcf42e23          	sw	a5,-36(s0)
        uint32_t addition = value << shift;
2040020a:	fe442703          	lw	a4,-28(s0)
2040020e:	fdc42783          	lw	a5,-36(s0)
20400212:	00f717b3          	sll	a5,a4,a5
20400216:	fcf42c23          	sw	a5,-40(s0)
        res = res | addition;
2040021a:	fec42703          	lw	a4,-20(s0)
2040021e:	fd842783          	lw	a5,-40(s0)
20400222:	8fd9                	or	a5,a5,a4
20400224:	fef42623          	sw	a5,-20(s0)

        index++;
20400228:	fe842783          	lw	a5,-24(s0)
2040022c:	0785                	addi	a5,a5,1
2040022e:	fef42423          	sw	a5,-24(s0)
    while (index < slength) {
20400232:	b71d                	j	20400158 <_Z7datahexPKcj+0x3c>
    }

    return res;
20400234:	fec42783          	lw	a5,-20(s0)
}
20400238:	853e                	mv	a0,a5
2040023a:	838a                	mv	t2,sp
2040023c:	5472                	lw	s0,60(sp)
2040023e:	6121                	addi	sp,sp,64
20400240:	8082                	ret

20400242 <setup>:


extern "C"
void setup() {
20400242:	1141                	addi	sp,sp,-16
20400244:	c606                	sw	ra,12(sp)
20400246:	c422                	sw	s0,8(sp)
20400248:	0800                	addi	s0,sp,16
  
  pinMode(buttonPin, INPUT);
2040024a:	4581                	li	a1,0
2040024c:	4519                	li	a0,6
2040024e:	079020ef          	jal	ra,20402ac6 <pinMode>
  // set up the LCD's number of columns and rows:
  lcd.begin(16, 2);
20400252:	4681                	li	a3,0
20400254:	4609                	li	a2,2
20400256:	45c1                	li	a1,16
20400258:	800007b7          	lui	a5,0x80000
2040025c:	44078513          	addi	a0,a5,1088 # 80000440 <_sp+0xffffc440>
20400260:	214d                	jal	20400702 <_ZN13LiquidCrystal5beginEhhh>
  // Print a message to the LCD.
  lcd.print("Stack Erase demo");
20400262:	204047b7          	lui	a5,0x20404
20400266:	a4078593          	addi	a1,a5,-1472 # 20403a40 <__divdi3+0x480>
2040026a:	800007b7          	lui	a5,0x80000
2040026e:	44078513          	addi	a0,a5,1088 # 80000440 <_sp+0xffffc440>
20400272:	199020ef          	jal	ra,20402c0a <_ZN5Print5printEPKc>

  Serial.begin(9600);
20400276:	6789                	lui	a5,0x2
20400278:	58078593          	addi	a1,a5,1408 # 2580 <__stack_size+0x1d80>
2040027c:	800007b7          	lui	a5,0x80000
20400280:	45c78513          	addi	a0,a5,1116 # 8000045c <_sp+0xffffc45c>
20400284:	30d020ef          	jal	ra,20402d90 <_ZN9UARTClass5beginEm>
}
20400288:	0001                	nop
2040028a:	838a                	mv	t2,sp
2040028c:	40b2                	lw	ra,12(sp)
2040028e:	4422                	lw	s0,8(sp)
20400290:	0141                	addi	sp,sp,16
20400292:	8082                	ret

20400294 <_Z12correctInputPKcj>:
bool locked = true;

// Uncomment to protect function with stack erase
//__attribute__((stack_erase))
bool correctInput(const char* recvBuf, size_t buflen)
{
20400294:	7179                	addi	sp,sp,-48
20400296:	d606                	sw	ra,44(sp)
20400298:	d422                	sw	s0,40(sp)
2040029a:	1800                	addi	s0,sp,48
2040029c:	fca42e23          	sw	a0,-36(s0)
204002a0:	fcb42c23          	sw	a1,-40(s0)
  uint32_t K_try = datahex(recvBuf, buflen);
204002a4:	fd842583          	lw	a1,-40(s0)
204002a8:	fdc42503          	lw	a0,-36(s0)
204002ac:	3d85                	jal	2040011c <_Z7datahexPKcj>
204002ae:	fea42623          	sw	a0,-20(s0)
  uint32_t K_correct = K;
204002b2:	800007b7          	lui	a5,0x80000
204002b6:	43c7a783          	lw	a5,1084(a5) # 8000043c <_sp+0xffffc43c>
204002ba:	fef42423          	sw	a5,-24(s0)

  if (conversion_error)
204002be:	800007b7          	lui	a5,0x80000
204002c2:	4387a783          	lw	a5,1080(a5) # 80000438 <_sp+0xffffc438>
204002c6:	c399                	beqz	a5,204002cc <_Z12correctInputPKcj+0x38>
    return false;
204002c8:	4781                	li	a5,0
204002ca:	a819                	j	204002e0 <_Z12correctInputPKcj+0x4c>

  return K_correct == K_try;
204002cc:	fe842703          	lw	a4,-24(s0)
204002d0:	fec42783          	lw	a5,-20(s0)
204002d4:	40f707b3          	sub	a5,a4,a5
204002d8:	0017b793          	seqz	a5,a5
204002dc:	0ff7f793          	andi	a5,a5,255
}
204002e0:	853e                	mv	a0,a5
204002e2:	838a                	mv	t2,sp
204002e4:	50b2                	lw	ra,44(sp)
204002e6:	5422                	lw	s0,40(sp)
204002e8:	6145                	addi	sp,sp,48
204002ea:	8082                	ret

204002ec <_Z13readSerialBufv>:

char * readSerialBuf() {
204002ec:	1101                	addi	sp,sp,-32
204002ee:	ce06                	sw	ra,28(sp)
204002f0:	cc22                	sw	s0,24(sp)
204002f2:	1000                	addi	s0,sp,32
  char buf[8];
  int8_t bufLoc = 0;
204002f4:	fe0407a3          	sb	zero,-17(s0)
  while (true) {
    if (Serial.available()) {
204002f8:	800007b7          	lui	a5,0x80000
204002fc:	45c78513          	addi	a0,a5,1116 # 8000045c <_sp+0xffffc45c>
20400300:	309020ef          	jal	ra,20402e08 <_ZN9UARTClass9availableEv>
20400304:	87aa                	mv	a5,a0
20400306:	00f037b3          	snez	a5,a5
2040030a:	0ff7f793          	andi	a5,a5,255
2040030e:	d7ed                	beqz	a5,204002f8 <_Z13readSerialBufv+0xc>
      lcd.setCursor(10,0);
20400310:	4601                	li	a2,0
20400312:	45a9                	li	a1,10
20400314:	800007b7          	lui	a5,0x80000
20400318:	44078513          	addi	a0,a5,1088 # 80000440 <_sp+0xffffc440>
2040031c:	2f3010ef          	jal	ra,20401e0e <_ZN13LiquidCrystal9setCursorEhh>
      lcd.print(bufLoc);
20400320:	fef40783          	lb	a5,-17(s0)
20400324:	4629                	li	a2,10
20400326:	85be                	mv	a1,a5
20400328:	800007b7          	lui	a5,0x80000
2040032c:	44078513          	addi	a0,a5,1088 # 80000440 <_sp+0xffffc440>
20400330:	247020ef          	jal	ra,20402d76 <_ZN5Print5printEii>
      buf[bufLoc] = Serial.read();
20400334:	800007b7          	lui	a5,0x80000
20400338:	45c78513          	addi	a0,a5,1116 # 8000045c <_sp+0xffffc45c>
2040033c:	35b020ef          	jal	ra,20402e96 <_ZN9UARTClass4readEv>
20400340:	872a                	mv	a4,a0
20400342:	fef40783          	lb	a5,-17(s0)
20400346:	0ff77713          	andi	a4,a4,255
2040034a:	ff040693          	addi	a3,s0,-16
2040034e:	97b6                	add	a5,a5,a3
20400350:	fee78823          	sb	a4,-16(a5)
      if (buf[bufLoc] == '\n') {
20400354:	fef40783          	lb	a5,-17(s0)
20400358:	ff040713          	addi	a4,s0,-16
2040035c:	97ba                	add	a5,a5,a4
2040035e:	ff07c703          	lbu	a4,-16(a5)
20400362:	47a9                	li	a5,10
20400364:	02f71f63          	bne	a4,a5,204003a2 <_Z13readSerialBufv+0xb6>
        Serial.write(buf, bufLoc+1);
20400368:	fef40783          	lb	a5,-17(s0)
2040036c:	0785                	addi	a5,a5,1
2040036e:	873e                	mv	a4,a5
20400370:	fe040793          	addi	a5,s0,-32
20400374:	863a                	mv	a2,a4
20400376:	85be                	mv	a1,a5
20400378:	800007b7          	lui	a5,0x80000
2040037c:	45c78513          	addi	a0,a5,1116 # 8000045c <_sp+0xffffc45c>
20400380:	338d                	jal	204000e2 <_ZN5Print5writeEPKcj>
        char * retBuf = (char *) malloc(8*sizeof(char));
20400382:	4521                	li	a0,8
20400384:	628020ef          	jal	ra,204029ac <__wrap_malloc>
20400388:	fea42423          	sw	a0,-24(s0)
        strncpy(retBuf, buf, (8*sizeof(char)));
2040038c:	fe040793          	addi	a5,s0,-32
20400390:	4621                	li	a2,8
20400392:	85be                	mv	a1,a5
20400394:	fe842503          	lw	a0,-24(s0)
20400398:	755020ef          	jal	ra,204032ec <strncpy>
        return retBuf;
2040039c:	fe842783          	lw	a5,-24(s0)
204003a0:	a819                	j	204003b6 <_Z13readSerialBufv+0xca>
      }
      bufLoc++;
204003a2:	fef40783          	lb	a5,-17(s0)
204003a6:	0ff7f793          	andi	a5,a5,255
204003aa:	0785                	addi	a5,a5,1
204003ac:	0ff7f793          	andi	a5,a5,255
204003b0:	fef407a3          	sb	a5,-17(s0)
    }
  }
204003b4:	b791                	j	204002f8 <_Z13readSerialBufv+0xc>
}
204003b6:	853e                	mv	a0,a5
204003b8:	838a                	mv	t2,sp
204003ba:	40f2                	lw	ra,28(sp)
204003bc:	4462                	lw	s0,24(sp)
204003be:	6105                	addi	sp,sp,32
204003c0:	8082                	ret

204003c2 <_Z8doSerialv>:


void doSerial() {
204003c2:	1101                	addi	sp,sp,-32
204003c4:	ce06                	sw	ra,28(sp)
204003c6:	cc22                	sw	s0,24(sp)
204003c8:	1000                	addi	s0,sp,32
  Serial.print("Enter code: ");
204003ca:	204047b7          	lui	a5,0x20404
204003ce:	a5478593          	addi	a1,a5,-1452 # 20403a54 <__divdi3+0x494>
204003d2:	800007b7          	lui	a5,0x80000
204003d6:	45c78513          	addi	a0,a5,1116 # 8000045c <_sp+0xffffc45c>
204003da:	031020ef          	jal	ra,20402c0a <_ZN5Print5printEPKc>
  char * recvBuf = readSerialBuf();
204003de:	3739                	jal	204002ec <_Z13readSerialBufv>
204003e0:	fea42623          	sw	a0,-20(s0)
  if (correctInput(recvBuf, 8)) {
204003e4:	45a1                	li	a1,8
204003e6:	fec42503          	lw	a0,-20(s0)
204003ea:	356d                	jal	20400294 <_Z12correctInputPKcj>
204003ec:	87aa                	mv	a5,a0
204003ee:	c3b1                	beqz	a5,20400432 <_Z8doSerialv+0x70>
    locked = false;
204003f0:	800007b7          	lui	a5,0x80000
204003f4:	42078623          	sb	zero,1068(a5) # 8000042c <_sp+0xffffc42c>
    Serial.print("Unlocking...\n");
204003f8:	204047b7          	lui	a5,0x20404
204003fc:	a6478593          	addi	a1,a5,-1436 # 20403a64 <__divdi3+0x4a4>
20400400:	800007b7          	lui	a5,0x80000
20400404:	45c78513          	addi	a0,a5,1116 # 8000045c <_sp+0xffffc45c>
20400408:	003020ef          	jal	ra,20402c0a <_ZN5Print5printEPKc>
    lcd.setCursor(0, 0);
2040040c:	4601                	li	a2,0
2040040e:	4581                	li	a1,0
20400410:	800007b7          	lui	a5,0x80000
20400414:	44078513          	addi	a0,a5,1088 # 80000440 <_sp+0xffffc440>
20400418:	1f7010ef          	jal	ra,20401e0e <_ZN13LiquidCrystal9setCursorEhh>
    lcd.print("UNLOCKED             ");
2040041c:	204047b7          	lui	a5,0x20404
20400420:	a7478593          	addi	a1,a5,-1420 # 20403a74 <__divdi3+0x4b4>
20400424:	800007b7          	lui	a5,0x80000
20400428:	44078513          	addi	a0,a5,1088 # 80000440 <_sp+0xffffc440>
2040042c:	7de020ef          	jal	ra,20402c0a <_ZN5Print5printEPKc>
20400430:	a821                	j	20400448 <_Z8doSerialv+0x86>
  } else {
    Serial.println("Incorrect code...");
20400432:	204047b7          	lui	a5,0x20404
20400436:	a8c78593          	addi	a1,a5,-1396 # 20403a8c <__divdi3+0x4cc>
2040043a:	800007b7          	lui	a5,0x80000
2040043e:	45c78513          	addi	a0,a5,1116 # 8000045c <_sp+0xffffc45c>
20400442:	7fa020ef          	jal	ra,20402c3c <_ZN5Print7printlnEPKc>
    return;
20400446:	0001                	nop
  }
}
20400448:	838a                	mv	t2,sp
2040044a:	40f2                	lw	ra,28(sp)
2040044c:	4462                	lw	s0,24(sp)
2040044e:	6105                	addi	sp,sp,32
20400450:	8082                	ret

20400452 <loop>:

extern "C"
void loop() {
20400452:	1101                	addi	sp,sp,-32
20400454:	ce06                	sw	ra,28(sp)
20400456:	cc22                	sw	s0,24(sp)
20400458:	1000                	addi	s0,sp,32
  unsigned int state = digitalRead(buttonPin);
2040045a:	4519                	li	a0,6
2040045c:	72a020ef          	jal	ra,20402b86 <digitalRead>
20400460:	87aa                	mv	a5,a0
20400462:	fef42623          	sw	a5,-20(s0)
  if (state == LOW) {
20400466:	fec42783          	lw	a5,-20(s0)
2040046a:	e7bd                	bnez	a5,204004d8 <loop+0x86>
    randomSeed(millis());
2040046c:	636020ef          	jal	ra,20402aa2 <millis>
20400470:	87aa                	mv	a5,a0
20400472:	853e                	mv	a0,a5
20400474:	2a3020ef          	jal	ra,20402f16 <_Z10randomSeedm>
    K = random(); 
20400478:	58d020ef          	jal	ra,20403204 <random>
2040047c:	87aa                	mv	a5,a0
2040047e:	873e                	mv	a4,a5
20400480:	800007b7          	lui	a5,0x80000
20400484:	42e7ae23          	sw	a4,1084(a5) # 8000043c <_sp+0xffffc43c>
	lcd.setCursor(0, 1);
20400488:	4605                	li	a2,1
2040048a:	4581                	li	a1,0
2040048c:	800007b7          	lui	a5,0x80000
20400490:	44078513          	addi	a0,a5,1088 # 80000440 <_sp+0xffffc440>
20400494:	17b010ef          	jal	ra,20401e0e <_ZN13LiquidCrystal9setCursorEhh>
    lcd.print(K, HEX);
20400498:	800007b7          	lui	a5,0x80000
2040049c:	43c7a783          	lw	a5,1084(a5) # 8000043c <_sp+0xffffc43c>
204004a0:	4641                	li	a2,16
204004a2:	85be                	mv	a1,a5
204004a4:	800007b7          	lui	a5,0x80000
204004a8:	44078513          	addi	a0,a5,1088 # 80000440 <_sp+0xffffc440>
204004ac:	0cd020ef          	jal	ra,20402d78 <_ZN5Print5printEmi>

    lcd.setCursor(0, 0);
204004b0:	4601                	li	a2,0
204004b2:	4581                	li	a1,0
204004b4:	800007b7          	lui	a5,0x80000
204004b8:	44078513          	addi	a0,a5,1088 # 80000440 <_sp+0xffffc440>
204004bc:	153010ef          	jal	ra,20401e0e <_ZN13LiquidCrystal9setCursorEhh>
    lcd.print("LOCKED          ");
204004c0:	204047b7          	lui	a5,0x20404
204004c4:	aa078593          	addi	a1,a5,-1376 # 20403aa0 <__divdi3+0x4e0>
204004c8:	800007b7          	lui	a5,0x80000
204004cc:	44078513          	addi	a0,a5,1088 # 80000440 <_sp+0xffffc440>
204004d0:	73a020ef          	jal	ra,20402c0a <_ZN5Print5printEPKc>
    while (true) { doSerial(); }
204004d4:	35fd                	jal	204003c2 <_Z8doSerialv>
204004d6:	bffd                	j	204004d4 <loop+0x82>
  }
}
204004d8:	0001                	nop
204004da:	838a                	mv	t2,sp
204004dc:	40f2                	lw	ra,28(sp)
204004de:	4462                	lw	s0,24(sp)
204004e0:	6105                	addi	sp,sp,32
204004e2:	8082                	ret

204004e4 <_Z41__static_initialization_and_destruction_0ii>:
204004e4:	1101                	addi	sp,sp,-32
204004e6:	ce06                	sw	ra,28(sp)
204004e8:	cc22                	sw	s0,24(sp)
204004ea:	1000                	addi	s0,sp,32
204004ec:	fea42623          	sw	a0,-20(s0)
204004f0:	feb42423          	sw	a1,-24(s0)
204004f4:	fec42703          	lw	a4,-20(s0)
204004f8:	4785                	li	a5,1
204004fa:	02f71363          	bne	a4,a5,20400520 <_Z41__static_initialization_and_destruction_0ii+0x3c>
204004fe:	fe842703          	lw	a4,-24(s0)
20400502:	67c1                	lui	a5,0x10
20400504:	17fd                	addi	a5,a5,-1
20400506:	00f71d63          	bne	a4,a5,20400520 <_Z41__static_initialization_and_destruction_0ii+0x3c>
LiquidCrystal lcd(rs, en, d4, d5, d6, d7);
2040050a:	4809                	li	a6,2
2040050c:	478d                	li	a5,3
2040050e:	4711                	li	a4,4
20400510:	4695                	li	a3,5
20400512:	462d                	li	a2,11
20400514:	45b1                	li	a1,12
20400516:	80000537          	lui	a0,0x80000
2040051a:	44050513          	addi	a0,a0,1088 # 80000440 <_sp+0xffffc440>
2040051e:	2891                	jal	20400572 <_ZN13LiquidCrystalC1Ehhhhhh>
}
20400520:	0001                	nop
20400522:	838a                	mv	t2,sp
20400524:	40f2                	lw	ra,28(sp)
20400526:	4462                	lw	s0,24(sp)
20400528:	6105                	addi	sp,sp,32
2040052a:	8082                	ret

2040052c <_GLOBAL__sub_I_lcd>:
2040052c:	1141                	addi	sp,sp,-16
2040052e:	c606                	sw	ra,12(sp)
20400530:	c422                	sw	s0,8(sp)
20400532:	0800                	addi	s0,sp,16
20400534:	67c1                	lui	a5,0x10
20400536:	fff78593          	addi	a1,a5,-1 # ffff <__stack_size+0xf7ff>
2040053a:	4505                	li	a0,1
2040053c:	3765                	jal	204004e4 <_Z41__static_initialization_and_destruction_0ii>
2040053e:	838a                	mv	t2,sp
20400540:	40b2                	lw	ra,12(sp)
20400542:	4422                	lw	s0,8(sp)
20400544:	0141                	addi	sp,sp,16
20400546:	8082                	ret

20400548 <_ZN5PrintC1Ev>:
    Print() : write_error(0) {}
20400548:	1101                	addi	sp,sp,-32
2040054a:	ce22                	sw	s0,28(sp)
2040054c:	1000                	addi	s0,sp,32
2040054e:	fea42623          	sw	a0,-20(s0)
20400552:	204047b7          	lui	a5,0x20404
20400556:	b1c78713          	addi	a4,a5,-1252 # 20403b1c <_ZTV5Print+0x8>
2040055a:	fec42783          	lw	a5,-20(s0)
2040055e:	c398                	sw	a4,0(a5)
20400560:	fec42783          	lw	a5,-20(s0)
20400564:	0007a223          	sw	zero,4(a5)
20400568:	0001                	nop
2040056a:	838a                	mv	t2,sp
2040056c:	4472                	lw	s0,28(sp)
2040056e:	6105                	addi	sp,sp,32
20400570:	8082                	ret

20400572 <_ZN13LiquidCrystalC1Ehhhhhh>:
			     uint8_t d0, uint8_t d1, uint8_t d2, uint8_t d3)
{
  init(1, rs, rw, enable, d0, d1, d2, d3, 0, 0, 0, 0);
}

LiquidCrystal::LiquidCrystal(uint8_t rs,  uint8_t enable,
20400572:	fc810113          	addi	sp,sp,-56
20400576:	da06                	sw	ra,52(sp)
20400578:	d822                	sw	s0,48(sp)
2040057a:	1820                	addi	s0,sp,56
2040057c:	fea42623          	sw	a0,-20(s0)
20400580:	88ae                	mv	a7,a1
20400582:	8532                	mv	a0,a2
20400584:	85b6                	mv	a1,a3
20400586:	863a                	mv	a2,a4
20400588:	86be                	mv	a3,a5
2040058a:	8742                	mv	a4,a6
2040058c:	87c6                	mv	a5,a7
2040058e:	fef405a3          	sb	a5,-21(s0)
20400592:	87aa                	mv	a5,a0
20400594:	fef40523          	sb	a5,-22(s0)
20400598:	87ae                	mv	a5,a1
2040059a:	fef404a3          	sb	a5,-23(s0)
2040059e:	87b2                	mv	a5,a2
204005a0:	fef40423          	sb	a5,-24(s0)
204005a4:	87b6                	mv	a5,a3
204005a6:	fef403a3          	sb	a5,-25(s0)
204005aa:	87ba                	mv	a5,a4
204005ac:	fef40323          	sb	a5,-26(s0)
			     uint8_t d0, uint8_t d1, uint8_t d2, uint8_t d3)
204005b0:	fec42783          	lw	a5,-20(s0)
204005b4:	853e                	mv	a0,a5
204005b6:	3f49                	jal	20400548 <_ZN5PrintC1Ev>
204005b8:	204047b7          	lui	a5,0x20404
204005bc:	abc78713          	addi	a4,a5,-1348 # 20403abc <_ZTV13LiquidCrystal+0x8>
204005c0:	fec42783          	lw	a5,-20(s0)
204005c4:	c398                	sw	a4,0(a5)
{
  init(1, rs, 255, enable, d0, d1, d2, d3, 0, 0, 0, 0);
204005c6:	fe744503          	lbu	a0,-25(s0)
204005ca:	fe844583          	lbu	a1,-24(s0)
204005ce:	fe944683          	lbu	a3,-23(s0)
204005d2:	fea44703          	lbu	a4,-22(s0)
204005d6:	feb44603          	lbu	a2,-21(s0)
204005da:	c802                	sw	zero,16(sp)
204005dc:	c602                	sw	zero,12(sp)
204005de:	c402                	sw	zero,8(sp)
204005e0:	c202                	sw	zero,4(sp)
204005e2:	fe644783          	lbu	a5,-26(s0)
204005e6:	c03e                	sw	a5,0(sp)
204005e8:	88aa                	mv	a7,a0
204005ea:	882e                	mv	a6,a1
204005ec:	87b6                	mv	a5,a3
204005ee:	0ff00693          	li	a3,255
204005f2:	4585                	li	a1,1
204005f4:	fec42503          	lw	a0,-20(s0)
204005f8:	2801                	jal	20400608 <_ZN13LiquidCrystal4initEhhhhhhhhhhhh>
}
204005fa:	0001                	nop
204005fc:	838a                	mv	t2,sp
204005fe:	50d2                	lw	ra,52(sp)
20400600:	5442                	lw	s0,48(sp)
20400602:	03810113          	addi	sp,sp,56
20400606:	8082                	ret

20400608 <_ZN13LiquidCrystal4initEhhhhhhhhhhhh>:

void LiquidCrystal::init(uint8_t fourbitmode, uint8_t rs, uint8_t rw, uint8_t enable,
			 uint8_t d0, uint8_t d1, uint8_t d2, uint8_t d3,
			 uint8_t d4, uint8_t d5, uint8_t d6, uint8_t d7)
{
20400608:	1101                	addi	sp,sp,-32
2040060a:	ce06                	sw	ra,28(sp)
2040060c:	cc22                	sw	s0,24(sp)
2040060e:	1000                	addi	s0,sp,32
20400610:	fea42623          	sw	a0,-20(s0)
20400614:	8e2e                	mv	t3,a1
20400616:	8332                	mv	t1,a2
20400618:	8536                	mv	a0,a3
2040061a:	85ba                	mv	a1,a4
2040061c:	863e                	mv	a2,a5
2040061e:	86c2                	mv	a3,a6
20400620:	8746                	mv	a4,a7
20400622:	87f2                	mv	a5,t3
20400624:	fef405a3          	sb	a5,-21(s0)
20400628:	879a                	mv	a5,t1
2040062a:	fef40523          	sb	a5,-22(s0)
2040062e:	87aa                	mv	a5,a0
20400630:	fef404a3          	sb	a5,-23(s0)
20400634:	87ae                	mv	a5,a1
20400636:	fef40423          	sb	a5,-24(s0)
2040063a:	87b2                	mv	a5,a2
2040063c:	fef403a3          	sb	a5,-25(s0)
20400640:	87b6                	mv	a5,a3
20400642:	fef40323          	sb	a5,-26(s0)
20400646:	87ba                	mv	a5,a4
20400648:	fef402a3          	sb	a5,-27(s0)
  _rs_pin = rs;
2040064c:	fec42783          	lw	a5,-20(s0)
20400650:	fea44703          	lbu	a4,-22(s0)
20400654:	00e78423          	sb	a4,8(a5)
  _rw_pin = rw;
20400658:	fec42783          	lw	a5,-20(s0)
2040065c:	fe944703          	lbu	a4,-23(s0)
20400660:	00e784a3          	sb	a4,9(a5)
  _enable_pin = enable;
20400664:	fec42783          	lw	a5,-20(s0)
20400668:	fe844703          	lbu	a4,-24(s0)
2040066c:	00e78523          	sb	a4,10(a5)
  
  _data_pins[0] = d0;
20400670:	fec42783          	lw	a5,-20(s0)
20400674:	fe744703          	lbu	a4,-25(s0)
20400678:	00e785a3          	sb	a4,11(a5)
  _data_pins[1] = d1;
2040067c:	fec42783          	lw	a5,-20(s0)
20400680:	fe644703          	lbu	a4,-26(s0)
20400684:	00e78623          	sb	a4,12(a5)
  _data_pins[2] = d2;
20400688:	fec42783          	lw	a5,-20(s0)
2040068c:	fe544703          	lbu	a4,-27(s0)
20400690:	00e786a3          	sb	a4,13(a5)
  _data_pins[3] = d3; 
20400694:	fec42783          	lw	a5,-20(s0)
20400698:	00044703          	lbu	a4,0(s0)
2040069c:	00e78723          	sb	a4,14(a5)
  _data_pins[4] = d4;
204006a0:	fec42783          	lw	a5,-20(s0)
204006a4:	00444703          	lbu	a4,4(s0)
204006a8:	00e787a3          	sb	a4,15(a5)
  _data_pins[5] = d5;
204006ac:	fec42783          	lw	a5,-20(s0)
204006b0:	00844703          	lbu	a4,8(s0)
204006b4:	00e78823          	sb	a4,16(a5)
  _data_pins[6] = d6;
204006b8:	fec42783          	lw	a5,-20(s0)
204006bc:	00c44703          	lbu	a4,12(s0)
204006c0:	00e788a3          	sb	a4,17(a5)
  _data_pins[7] = d7; 
204006c4:	fec42783          	lw	a5,-20(s0)
204006c8:	01044703          	lbu	a4,16(s0)
204006cc:	00e78923          	sb	a4,18(a5)

  if (fourbitmode)
204006d0:	feb44783          	lbu	a5,-21(s0)
204006d4:	c791                	beqz	a5,204006e0 <_ZN13LiquidCrystal4initEhhhhhhhhhhhh+0xd8>
    _displayfunction = LCD_4BITMODE | LCD_1LINE | LCD_5x8DOTS;
204006d6:	fec42783          	lw	a5,-20(s0)
204006da:	000789a3          	sb	zero,19(a5)
204006de:	a031                	j	204006ea <_ZN13LiquidCrystal4initEhhhhhhhhhhhh+0xe2>
  else 
    _displayfunction = LCD_8BITMODE | LCD_1LINE | LCD_5x8DOTS;
204006e0:	fec42783          	lw	a5,-20(s0)
204006e4:	4741                	li	a4,16
204006e6:	00e789a3          	sb	a4,19(a5)
  
  begin(16, 1);  
204006ea:	4681                	li	a3,0
204006ec:	4605                	li	a2,1
204006ee:	45c1                	li	a1,16
204006f0:	fec42503          	lw	a0,-20(s0)
204006f4:	2039                	jal	20400702 <_ZN13LiquidCrystal5beginEhhh>
}
204006f6:	0001                	nop
204006f8:	838a                	mv	t2,sp
204006fa:	40f2                	lw	ra,28(sp)
204006fc:	4462                	lw	s0,24(sp)
204006fe:	6105                	addi	sp,sp,32
20400700:	8082                	ret

20400702 <_ZN13LiquidCrystal5beginEhhh>:

void LiquidCrystal::begin(uint8_t cols, uint8_t lines, uint8_t dotsize) {
20400702:	ad010113          	addi	sp,sp,-1328
20400706:	52112623          	sw	ra,1324(sp)
2040070a:	52812423          	sw	s0,1320(sp)
2040070e:	53212223          	sw	s2,1316(sp)
20400712:	53312023          	sw	s3,1312(sp)
20400716:	51412e23          	sw	s4,1308(sp)
2040071a:	51512c23          	sw	s5,1304(sp)
2040071e:	51612a23          	sw	s6,1300(sp)
20400722:	51712823          	sw	s7,1296(sp)
20400726:	51812623          	sw	s8,1292(sp)
2040072a:	51912423          	sw	s9,1288(sp)
2040072e:	51a12223          	sw	s10,1284(sp)
20400732:	51b12023          	sw	s11,1280(sp)
20400736:	53010413          	addi	s0,sp,1328
2040073a:	e0a42623          	sw	a0,-500(s0)
2040073e:	87ae                	mv	a5,a1
20400740:	8732                	mv	a4,a2
20400742:	e0f405a3          	sb	a5,-501(s0)
20400746:	87ba                	mv	a5,a4
20400748:	e0f40523          	sb	a5,-502(s0)
2040074c:	87b6                	mv	a5,a3
2040074e:	e0f404a3          	sb	a5,-503(s0)
  if (lines > 1) {
20400752:	e0a44703          	lbu	a4,-502(s0)
20400756:	4785                	li	a5,1
20400758:	00e7fe63          	bleu	a4,a5,20400774 <_ZN13LiquidCrystal5beginEhhh+0x72>
    _displayfunction |= LCD_2LINE;
2040075c:	e0c42783          	lw	a5,-500(s0)
20400760:	0137c783          	lbu	a5,19(a5)
20400764:	0087e793          	ori	a5,a5,8
20400768:	0ff7f713          	andi	a4,a5,255
2040076c:	e0c42783          	lw	a5,-500(s0)
20400770:	00e789a3          	sb	a4,19(a5)
  }
  _numlines = lines;
20400774:	e0c42703          	lw	a4,-500(s0)
20400778:	e0a44783          	lbu	a5,-502(s0)
2040077c:	00f70ba3          	sb	a5,23(a4) # 10013017 <__stack_size+0x10012817>

  setRowOffsets(0x00, 0x40, 0x00 + cols, 0x40 + cols);  
20400780:	e0b44683          	lbu	a3,-501(s0)
20400784:	e0b44783          	lbu	a5,-501(s0)
20400788:	04078793          	addi	a5,a5,64
2040078c:	873e                	mv	a4,a5
2040078e:	04000613          	li	a2,64
20400792:	4581                	li	a1,0
20400794:	e0c42503          	lw	a0,-500(s0)
20400798:	32c010ef          	jal	ra,20401ac4 <_ZN13LiquidCrystal13setRowOffsetsEiiii>

  // for some 1 line displays you can select a 10 pixel high font
  if ((dotsize != LCD_5x8DOTS) && (lines == 1)) {
2040079c:	e0944783          	lbu	a5,-503(s0)
204007a0:	c395                	beqz	a5,204007c4 <_ZN13LiquidCrystal5beginEhhh+0xc2>
204007a2:	e0a44703          	lbu	a4,-502(s0)
204007a6:	4785                	li	a5,1
204007a8:	00f71e63          	bne	a4,a5,204007c4 <_ZN13LiquidCrystal5beginEhhh+0xc2>
    _displayfunction |= LCD_5x10DOTS;
204007ac:	e0c42783          	lw	a5,-500(s0)
204007b0:	0137c783          	lbu	a5,19(a5)
204007b4:	0047e793          	ori	a5,a5,4
204007b8:	0ff7f713          	andi	a4,a5,255
204007bc:	e0c42783          	lw	a5,-500(s0)
204007c0:	00e789a3          	sb	a4,19(a5)
  }

  pinMode(_rs_pin, OUTPUT);
204007c4:	e0c42783          	lw	a5,-500(s0)
204007c8:	0087c783          	lbu	a5,8(a5)
204007cc:	4585                	li	a1,1
204007ce:	853e                	mv	a0,a5
204007d0:	2f6020ef          	jal	ra,20402ac6 <pinMode>
  // we can save 1 pin by not using RW. Indicate by passing 255 instead of pin#
  if (_rw_pin != 255) { 
204007d4:	e0c42783          	lw	a5,-500(s0)
204007d8:	0097c703          	lbu	a4,9(a5)
204007dc:	0ff00793          	li	a5,255
204007e0:	00f70a63          	beq	a4,a5,204007f4 <_ZN13LiquidCrystal5beginEhhh+0xf2>
    pinMode(_rw_pin, OUTPUT);
204007e4:	e0c42783          	lw	a5,-500(s0)
204007e8:	0097c783          	lbu	a5,9(a5)
204007ec:	4585                	li	a1,1
204007ee:	853e                	mv	a0,a5
204007f0:	2d6020ef          	jal	ra,20402ac6 <pinMode>
  }
  pinMode(_enable_pin, OUTPUT);
204007f4:	e0c42783          	lw	a5,-500(s0)
204007f8:	00a7c783          	lbu	a5,10(a5)
204007fc:	4585                	li	a1,1
204007fe:	853e                	mv	a0,a5
20400800:	2c6020ef          	jal	ra,20402ac6 <pinMode>
  
  // Do these once, instead of every time a character is drawn for speed reasons.
  for (int i=0; i<((_displayfunction & LCD_8BITMODE) ? 8 : 4); ++i)
20400804:	fc042623          	sw	zero,-52(s0)
20400808:	e0c42783          	lw	a5,-500(s0)
2040080c:	0137c783          	lbu	a5,19(a5)
20400810:	8bc1                	andi	a5,a5,16
20400812:	c399                	beqz	a5,20400818 <_ZN13LiquidCrystal5beginEhhh+0x116>
20400814:	4721                	li	a4,8
20400816:	a011                	j	2040081a <_ZN13LiquidCrystal5beginEhhh+0x118>
20400818:	4711                	li	a4,4
2040081a:	fcc42783          	lw	a5,-52(s0)
2040081e:	02e7d363          	ble	a4,a5,20400844 <_ZN13LiquidCrystal5beginEhhh+0x142>
  {
    pinMode(_data_pins[i], OUTPUT);
20400822:	e0c42703          	lw	a4,-500(s0)
20400826:	fcc42783          	lw	a5,-52(s0)
2040082a:	97ba                	add	a5,a5,a4
2040082c:	00b7c783          	lbu	a5,11(a5)
20400830:	4585                	li	a1,1
20400832:	853e                	mv	a0,a5
20400834:	292020ef          	jal	ra,20402ac6 <pinMode>
  for (int i=0; i<((_displayfunction & LCD_8BITMODE) ? 8 : 4); ++i)
20400838:	fcc42783          	lw	a5,-52(s0)
2040083c:	0785                	addi	a5,a5,1
2040083e:	fcf42623          	sw	a5,-52(s0)
20400842:	b7d9                	j	20400808 <_ZN13LiquidCrystal5beginEhhh+0x106>
20400844:	67b1                	lui	a5,0xc
20400846:	35078793          	addi	a5,a5,848 # c350 <__stack_size+0xbb50>
2040084a:	fcf42423          	sw	a5,-56(s0)
 * \param dwUs the number of microseconds to pause (uint32_t)
 */

static inline void delayMicroseconds(uint32_t) __attribute__((always_inline, unused));
static inline void delayMicroseconds(uint32_t usec) {
  if (usec == 0) {
2040084e:	fc842783          	lw	a5,-56(s0)
20400852:	28078b63          	beqz	a5,20400ae8 <_ZN13LiquidCrystal5beginEhhh+0x3e6>
    return;
  }
  // TODO: Short delays at low frequencies.
  uint64_t current, later;
  rdmcycle(&current);
20400856:	b80027f3          	csrr	a5,mcycleh
2040085a:	b0002773          	csrr	a4,mcycle
2040085e:	b80026f3          	csrr	a3,mcycleh
20400862:	fed79ae3          	bne	a5,a3,20400856 <_ZN13LiquidCrystal5beginEhhh+0x154>
20400866:	fcf42223          	sw	a5,-60(s0)
2040086a:	fce42023          	sw	a4,-64(s0)
2040086e:	fad42e23          	sw	a3,-68(s0)
20400872:	fc042783          	lw	a5,-64(s0)
20400876:	8c3e                	mv	s8,a5
20400878:	4c81                	li	s9,0
2040087a:	fc442783          	lw	a5,-60(s0)
2040087e:	dcf42c23          	sw	a5,-552(s0)
20400882:	dc042e23          	sw	zero,-548(s0)
20400886:	dd842783          	lw	a5,-552(s0)
2040088a:	00079a93          	slli	s5,a5,0x0
2040088e:	4a01                	li	s4,0
20400890:	014c67b3          	or	a5,s8,s4
20400894:	dcf42823          	sw	a5,-560(s0)
20400898:	015ce7b3          	or	a5,s9,s5
2040089c:	dcf42a23          	sw	a5,-556(s0)
204008a0:	dd042783          	lw	a5,-560(s0)
204008a4:	dd442803          	lw	a6,-556(s0)
204008a8:	e0f42c23          	sw	a5,-488(s0)
204008ac:	e1042e23          	sw	a6,-484(s0)
  later = current + usec * (F_CPU/1000000);
204008b0:	fc842783          	lw	a5,-56(s0)
204008b4:	8b3e                	mv	s6,a5
204008b6:	4b81                	li	s7,0
204008b8:	01cb5793          	srli	a5,s6,0x1c
204008bc:	004b9993          	slli	s3,s7,0x4
204008c0:	0137e9b3          	or	s3,a5,s3
204008c4:	004b1913          	slli	s2,s6,0x4
204008c8:	87ca                	mv	a5,s2
204008ca:	884e                	mv	a6,s3
204008cc:	e1842683          	lw	a3,-488(s0)
204008d0:	e1c42703          	lw	a4,-484(s0)
204008d4:	00d78533          	add	a0,a5,a3
204008d8:	862a                	mv	a2,a0
204008da:	00f63633          	sltu	a2,a2,a5
204008de:	00e805b3          	add	a1,a6,a4
204008e2:	00b607b3          	add	a5,a2,a1
204008e6:	85be                	mv	a1,a5
204008e8:	faa42823          	sw	a0,-80(s0)
204008ec:	fab42a23          	sw	a1,-76(s0)
  if (later > current) // usual case
204008f0:	e1842603          	lw	a2,-488(s0)
204008f4:	e1c42683          	lw	a3,-484(s0)
204008f8:	fb442703          	lw	a4,-76(s0)
204008fc:	87b6                	mv	a5,a3
204008fe:	00e7ed63          	bltu	a5,a4,20400918 <_ZN13LiquidCrystal5beginEhhh+0x216>
20400902:	fb442703          	lw	a4,-76(s0)
20400906:	87b6                	mv	a5,a3
20400908:	0af71163          	bne	a4,a5,204009aa <_ZN13LiquidCrystal5beginEhhh+0x2a8>
2040090c:	fb042703          	lw	a4,-80(s0)
20400910:	87b2                	mv	a5,a2
20400912:	00e7e363          	bltu	a5,a4,20400918 <_ZN13LiquidCrystal5beginEhhh+0x216>
20400916:	a851                	j	204009aa <_ZN13LiquidCrystal5beginEhhh+0x2a8>
    {
      while (later > current) {
20400918:	e1842603          	lw	a2,-488(s0)
2040091c:	e1c42683          	lw	a3,-484(s0)
20400920:	fb442703          	lw	a4,-76(s0)
20400924:	87b6                	mv	a5,a3
20400926:	00e7ec63          	bltu	a5,a4,2040093e <_ZN13LiquidCrystal5beginEhhh+0x23c>
2040092a:	fb442703          	lw	a4,-76(s0)
2040092e:	87b6                	mv	a5,a3
20400930:	1af71d63          	bne	a4,a5,20400aea <_ZN13LiquidCrystal5beginEhhh+0x3e8>
20400934:	fb042703          	lw	a4,-80(s0)
20400938:	87b2                	mv	a5,a2
2040093a:	1ae7f863          	bleu	a4,a5,20400aea <_ZN13LiquidCrystal5beginEhhh+0x3e8>
	rdmcycle(&current);
2040093e:	b80027f3          	csrr	a5,mcycleh
20400942:	b0002773          	csrr	a4,mcycle
20400946:	b80026f3          	csrr	a3,mcycleh
2040094a:	fed79ae3          	bne	a5,a3,2040093e <_ZN13LiquidCrystal5beginEhhh+0x23c>
2040094e:	faf42623          	sw	a5,-84(s0)
20400952:	fae42423          	sw	a4,-88(s0)
20400956:	fad42223          	sw	a3,-92(s0)
2040095a:	fa842783          	lw	a5,-88(s0)
2040095e:	dcf42423          	sw	a5,-568(s0)
20400962:	dc042623          	sw	zero,-564(s0)
20400966:	fac42783          	lw	a5,-84(s0)
2040096a:	dcf42023          	sw	a5,-576(s0)
2040096e:	dc042223          	sw	zero,-572(s0)
20400972:	dc042783          	lw	a5,-576(s0)
20400976:	00079d93          	slli	s11,a5,0x0
2040097a:	4d01                	li	s10,0
2040097c:	dc842783          	lw	a5,-568(s0)
20400980:	dcc42803          	lw	a6,-564(s0)
20400984:	873e                	mv	a4,a5
20400986:	01a76733          	or	a4,a4,s10
2040098a:	dae42c23          	sw	a4,-584(s0)
2040098e:	87c2                	mv	a5,a6
20400990:	01b7e7b3          	or	a5,a5,s11
20400994:	daf42e23          	sw	a5,-580(s0)
20400998:	db842783          	lw	a5,-584(s0)
2040099c:	dbc42803          	lw	a6,-580(s0)
204009a0:	e0f42c23          	sw	a5,-488(s0)
204009a4:	e1042e23          	sw	a6,-484(s0)
204009a8:	bf85                	j	20400918 <_ZN13LiquidCrystal5beginEhhh+0x216>
      }
    }
  else // wrap. Though this is unlikely to be hit w/ 64-bit mcycle
    {
      while (later < current) {
204009aa:	e1842603          	lw	a2,-488(s0)
204009ae:	e1c42683          	lw	a3,-484(s0)
204009b2:	fb442703          	lw	a4,-76(s0)
204009b6:	87b6                	mv	a5,a3
204009b8:	00f76d63          	bltu	a4,a5,204009d2 <_ZN13LiquidCrystal5beginEhhh+0x2d0>
204009bc:	fb442703          	lw	a4,-76(s0)
204009c0:	87b6                	mv	a5,a3
204009c2:	08f71463          	bne	a4,a5,20400a4a <_ZN13LiquidCrystal5beginEhhh+0x348>
204009c6:	fb042703          	lw	a4,-80(s0)
204009ca:	87b2                	mv	a5,a2
204009cc:	00f76363          	bltu	a4,a5,204009d2 <_ZN13LiquidCrystal5beginEhhh+0x2d0>
204009d0:	a8ad                	j	20400a4a <_ZN13LiquidCrystal5beginEhhh+0x348>
	rdmcycle(&current);
204009d2:	b80027f3          	csrr	a5,mcycleh
204009d6:	b0002773          	csrr	a4,mcycle
204009da:	b80026f3          	csrr	a3,mcycleh
204009de:	fed79ae3          	bne	a5,a3,204009d2 <_ZN13LiquidCrystal5beginEhhh+0x2d0>
204009e2:	faf42023          	sw	a5,-96(s0)
204009e6:	f8e42e23          	sw	a4,-100(s0)
204009ea:	f8d42c23          	sw	a3,-104(s0)
204009ee:	f9c42783          	lw	a5,-100(s0)
204009f2:	daf42823          	sw	a5,-592(s0)
204009f6:	da042a23          	sw	zero,-588(s0)
204009fa:	fa042783          	lw	a5,-96(s0)
204009fe:	daf42423          	sw	a5,-600(s0)
20400a02:	da042623          	sw	zero,-596(s0)
20400a06:	da842783          	lw	a5,-600(s0)
20400a0a:	00079793          	slli	a5,a5,0x0
20400a0e:	daf42223          	sw	a5,-604(s0)
20400a12:	da042023          	sw	zero,-608(s0)
20400a16:	db042683          	lw	a3,-592(s0)
20400a1a:	db442703          	lw	a4,-588(s0)
20400a1e:	8636                	mv	a2,a3
20400a20:	da042783          	lw	a5,-608(s0)
20400a24:	da442803          	lw	a6,-604(s0)
20400a28:	85be                	mv	a1,a5
20400a2a:	8e4d                	or	a2,a2,a1
20400a2c:	d8c42c23          	sw	a2,-616(s0)
20400a30:	87c2                	mv	a5,a6
20400a32:	8fd9                	or	a5,a5,a4
20400a34:	d8f42e23          	sw	a5,-612(s0)
20400a38:	d9842783          	lw	a5,-616(s0)
20400a3c:	d9c42803          	lw	a6,-612(s0)
20400a40:	e0f42c23          	sw	a5,-488(s0)
20400a44:	e1042e23          	sw	a6,-484(s0)
20400a48:	b78d                	j	204009aa <_ZN13LiquidCrystal5beginEhhh+0x2a8>
      }
      while (current < later) {
20400a4a:	e1842603          	lw	a2,-488(s0)
20400a4e:	e1c42683          	lw	a3,-484(s0)
20400a52:	fb442703          	lw	a4,-76(s0)
20400a56:	87b6                	mv	a5,a3
20400a58:	00e7ec63          	bltu	a5,a4,20400a70 <_ZN13LiquidCrystal5beginEhhh+0x36e>
20400a5c:	fb442703          	lw	a4,-76(s0)
20400a60:	87b6                	mv	a5,a3
20400a62:	08f71463          	bne	a4,a5,20400aea <_ZN13LiquidCrystal5beginEhhh+0x3e8>
20400a66:	fb042703          	lw	a4,-80(s0)
20400a6a:	87b2                	mv	a5,a2
20400a6c:	06e7ff63          	bleu	a4,a5,20400aea <_ZN13LiquidCrystal5beginEhhh+0x3e8>
	rdmcycle(&current);
20400a70:	b80027f3          	csrr	a5,mcycleh
20400a74:	b0002773          	csrr	a4,mcycle
20400a78:	b80026f3          	csrr	a3,mcycleh
20400a7c:	fed79ae3          	bne	a5,a3,20400a70 <_ZN13LiquidCrystal5beginEhhh+0x36e>
20400a80:	f8f42a23          	sw	a5,-108(s0)
20400a84:	f8e42823          	sw	a4,-112(s0)
20400a88:	f8d42623          	sw	a3,-116(s0)
20400a8c:	f9042783          	lw	a5,-112(s0)
20400a90:	d8f42823          	sw	a5,-624(s0)
20400a94:	d8042a23          	sw	zero,-620(s0)
20400a98:	f9442783          	lw	a5,-108(s0)
20400a9c:	d8f42423          	sw	a5,-632(s0)
20400aa0:	d8042623          	sw	zero,-628(s0)
20400aa4:	d8842783          	lw	a5,-632(s0)
20400aa8:	00079793          	slli	a5,a5,0x0
20400aac:	d8f42223          	sw	a5,-636(s0)
20400ab0:	d8042023          	sw	zero,-640(s0)
20400ab4:	d9042683          	lw	a3,-624(s0)
20400ab8:	d9442703          	lw	a4,-620(s0)
20400abc:	8636                	mv	a2,a3
20400abe:	d8042783          	lw	a5,-640(s0)
20400ac2:	d8442803          	lw	a6,-636(s0)
20400ac6:	85be                	mv	a1,a5
20400ac8:	8e4d                	or	a2,a2,a1
20400aca:	d6c42c23          	sw	a2,-648(s0)
20400ace:	87c2                	mv	a5,a6
20400ad0:	8fd9                	or	a5,a5,a4
20400ad2:	d6f42e23          	sw	a5,-644(s0)
20400ad6:	d7842783          	lw	a5,-648(s0)
20400ada:	d7c42803          	lw	a6,-644(s0)
20400ade:	e0f42c23          	sw	a5,-488(s0)
20400ae2:	e1042e23          	sw	a6,-484(s0)
20400ae6:	b795                	j	20400a4a <_ZN13LiquidCrystal5beginEhhh+0x348>
    return;
20400ae8:	0001                	nop
  // SEE PAGE 45/46 FOR INITIALIZATION SPECIFICATION!
  // according to datasheet, we need at least 40ms after power rises above 2.7V
  // before sending commands. Arduino can turn on way before 4.5V so we'll wait 50
  delayMicroseconds(50000); 
  // Now we pull both RS and R/W low to begin commands
  digitalWrite(_rs_pin, LOW);
20400aea:	e0c42783          	lw	a5,-500(s0)
20400aee:	0087c783          	lbu	a5,8(a5)
20400af2:	4581                	li	a1,0
20400af4:	853e                	mv	a0,a5
20400af6:	050020ef          	jal	ra,20402b46 <digitalWrite>
  digitalWrite(_enable_pin, LOW);
20400afa:	e0c42783          	lw	a5,-500(s0)
20400afe:	00a7c783          	lbu	a5,10(a5)
20400b02:	4581                	li	a1,0
20400b04:	853e                	mv	a0,a5
20400b06:	040020ef          	jal	ra,20402b46 <digitalWrite>
  if (_rw_pin != 255) { 
20400b0a:	e0c42783          	lw	a5,-500(s0)
20400b0e:	0097c703          	lbu	a4,9(a5)
20400b12:	0ff00793          	li	a5,255
20400b16:	00f70a63          	beq	a4,a5,20400b2a <_ZN13LiquidCrystal5beginEhhh+0x428>
    digitalWrite(_rw_pin, LOW);
20400b1a:	e0c42783          	lw	a5,-500(s0)
20400b1e:	0097c783          	lbu	a5,9(a5)
20400b22:	4581                	li	a1,0
20400b24:	853e                	mv	a0,a5
20400b26:	020020ef          	jal	ra,20402b46 <digitalWrite>
  }
  
  //put the LCD into 4 bit or 8 bit mode
  if (! (_displayfunction & LCD_8BITMODE)) {
20400b2a:	e0c42783          	lw	a5,-500(s0)
20400b2e:	0137c783          	lbu	a5,19(a5)
20400b32:	8bc1                	andi	a5,a5,16
20400b34:	0e0795e3          	bnez	a5,2040141e <_ZN13LiquidCrystal5beginEhhh+0xd1c>
    // this is according to the hitachi HD44780 datasheet
    // figure 24, pg 46

    // we start in 8bit mode, try to set 4 bit mode
    write4bits(0x03);
20400b38:	458d                	li	a1,3
20400b3a:	e0c42503          	lw	a0,-500(s0)
20400b3e:	5a7010ef          	jal	ra,204028e4 <_ZN13LiquidCrystal10write4bitsEh>
20400b42:	6785                	lui	a5,0x1
20400b44:	19478793          	addi	a5,a5,404 # 1194 <__stack_size+0x994>
20400b48:	f0f42423          	sw	a5,-248(s0)
  if (usec == 0) {
20400b4c:	f0842783          	lw	a5,-248(s0)
20400b50:	2c078e63          	beqz	a5,20400e2c <_ZN13LiquidCrystal5beginEhhh+0x72a>
  rdmcycle(&current);
20400b54:	b80027f3          	csrr	a5,mcycleh
20400b58:	b0002773          	csrr	a4,mcycle
20400b5c:	b80026f3          	csrr	a3,mcycleh
20400b60:	fed79ae3          	bne	a5,a3,20400b54 <_ZN13LiquidCrystal5beginEhhh+0x452>
20400b64:	f0f42223          	sw	a5,-252(s0)
20400b68:	f0e42023          	sw	a4,-256(s0)
20400b6c:	eed42e23          	sw	a3,-260(s0)
20400b70:	f0042783          	lw	a5,-256(s0)
20400b74:	c6f42023          	sw	a5,-928(s0)
20400b78:	c6042223          	sw	zero,-924(s0)
20400b7c:	f0442783          	lw	a5,-252(s0)
20400b80:	c4f42c23          	sw	a5,-936(s0)
20400b84:	c4042e23          	sw	zero,-932(s0)
20400b88:	c5842783          	lw	a5,-936(s0)
20400b8c:	00079793          	slli	a5,a5,0x0
20400b90:	c4f42a23          	sw	a5,-940(s0)
20400b94:	c4042823          	sw	zero,-944(s0)
20400b98:	c6042683          	lw	a3,-928(s0)
20400b9c:	c6442703          	lw	a4,-924(s0)
20400ba0:	8636                	mv	a2,a3
20400ba2:	c5042783          	lw	a5,-944(s0)
20400ba6:	c5442803          	lw	a6,-940(s0)
20400baa:	85be                	mv	a1,a5
20400bac:	8e4d                	or	a2,a2,a1
20400bae:	c4c42423          	sw	a2,-952(s0)
20400bb2:	87c2                	mv	a5,a6
20400bb4:	8fd9                	or	a5,a5,a4
20400bb6:	c4f42623          	sw	a5,-948(s0)
20400bba:	c4842783          	lw	a5,-952(s0)
20400bbe:	c4c42803          	lw	a6,-948(s0)
20400bc2:	e2f42823          	sw	a5,-464(s0)
20400bc6:	e3042a23          	sw	a6,-460(s0)
  later = current + usec * (F_CPU/1000000);
20400bca:	f0842783          	lw	a5,-248(s0)
20400bce:	c4f42023          	sw	a5,-960(s0)
20400bd2:	c4042223          	sw	zero,-956(s0)
20400bd6:	c4042683          	lw	a3,-960(s0)
20400bda:	c4442703          	lw	a4,-956(s0)
20400bde:	87b6                	mv	a5,a3
20400be0:	83f1                	srli	a5,a5,0x1c
20400be2:	863a                	mv	a2,a4
20400be4:	0612                	slli	a2,a2,0x4
20400be6:	dec42a23          	sw	a2,-524(s0)
20400bea:	df442603          	lw	a2,-524(s0)
20400bee:	8fd1                	or	a5,a5,a2
20400bf0:	def42a23          	sw	a5,-524(s0)
20400bf4:	87b6                	mv	a5,a3
20400bf6:	0792                	slli	a5,a5,0x4
20400bf8:	def42823          	sw	a5,-528(s0)
20400bfc:	df042783          	lw	a5,-528(s0)
20400c00:	df442803          	lw	a6,-524(s0)
20400c04:	e3042683          	lw	a3,-464(s0)
20400c08:	e3442703          	lw	a4,-460(s0)
20400c0c:	00d78533          	add	a0,a5,a3
20400c10:	862a                	mv	a2,a0
20400c12:	00f63633          	sltu	a2,a2,a5
20400c16:	00e805b3          	add	a1,a6,a4
20400c1a:	00b607b3          	add	a5,a2,a1
20400c1e:	85be                	mv	a1,a5
20400c20:	eea42823          	sw	a0,-272(s0)
20400c24:	eeb42a23          	sw	a1,-268(s0)
  if (later > current) // usual case
20400c28:	e3042603          	lw	a2,-464(s0)
20400c2c:	e3442683          	lw	a3,-460(s0)
20400c30:	ef442703          	lw	a4,-268(s0)
20400c34:	87b6                	mv	a5,a3
20400c36:	00e7ed63          	bltu	a5,a4,20400c50 <_ZN13LiquidCrystal5beginEhhh+0x54e>
20400c3a:	ef442703          	lw	a4,-268(s0)
20400c3e:	87b6                	mv	a5,a3
20400c40:	0af71763          	bne	a4,a5,20400cee <_ZN13LiquidCrystal5beginEhhh+0x5ec>
20400c44:	ef042703          	lw	a4,-272(s0)
20400c48:	87b2                	mv	a5,a2
20400c4a:	00e7e363          	bltu	a5,a4,20400c50 <_ZN13LiquidCrystal5beginEhhh+0x54e>
20400c4e:	a045                	j	20400cee <_ZN13LiquidCrystal5beginEhhh+0x5ec>
      while (later > current) {
20400c50:	e3042603          	lw	a2,-464(s0)
20400c54:	e3442683          	lw	a3,-460(s0)
20400c58:	ef442703          	lw	a4,-268(s0)
20400c5c:	87b6                	mv	a5,a3
20400c5e:	00e7ec63          	bltu	a5,a4,20400c76 <_ZN13LiquidCrystal5beginEhhh+0x574>
20400c62:	ef442703          	lw	a4,-268(s0)
20400c66:	87b6                	mv	a5,a3
20400c68:	1cf71363          	bne	a4,a5,20400e2e <_ZN13LiquidCrystal5beginEhhh+0x72c>
20400c6c:	ef042703          	lw	a4,-272(s0)
20400c70:	87b2                	mv	a5,a2
20400c72:	1ae7fe63          	bleu	a4,a5,20400e2e <_ZN13LiquidCrystal5beginEhhh+0x72c>
	rdmcycle(&current);
20400c76:	b80027f3          	csrr	a5,mcycleh
20400c7a:	b0002773          	csrr	a4,mcycle
20400c7e:	b80026f3          	csrr	a3,mcycleh
20400c82:	fed79ae3          	bne	a5,a3,20400c76 <_ZN13LiquidCrystal5beginEhhh+0x574>
20400c86:	eef42623          	sw	a5,-276(s0)
20400c8a:	eee42423          	sw	a4,-280(s0)
20400c8e:	eed42223          	sw	a3,-284(s0)
20400c92:	ee842783          	lw	a5,-280(s0)
20400c96:	c2f42c23          	sw	a5,-968(s0)
20400c9a:	c2042e23          	sw	zero,-964(s0)
20400c9e:	eec42783          	lw	a5,-276(s0)
20400ca2:	c2f42823          	sw	a5,-976(s0)
20400ca6:	c2042a23          	sw	zero,-972(s0)
20400caa:	c3042783          	lw	a5,-976(s0)
20400cae:	00079793          	slli	a5,a5,0x0
20400cb2:	c2f42623          	sw	a5,-980(s0)
20400cb6:	c2042423          	sw	zero,-984(s0)
20400cba:	c3842683          	lw	a3,-968(s0)
20400cbe:	c3c42703          	lw	a4,-964(s0)
20400cc2:	8636                	mv	a2,a3
20400cc4:	c2842783          	lw	a5,-984(s0)
20400cc8:	c2c42803          	lw	a6,-980(s0)
20400ccc:	85be                	mv	a1,a5
20400cce:	8e4d                	or	a2,a2,a1
20400cd0:	c2c42023          	sw	a2,-992(s0)
20400cd4:	87c2                	mv	a5,a6
20400cd6:	8fd9                	or	a5,a5,a4
20400cd8:	c2f42223          	sw	a5,-988(s0)
20400cdc:	c2042783          	lw	a5,-992(s0)
20400ce0:	c2442803          	lw	a6,-988(s0)
20400ce4:	e2f42823          	sw	a5,-464(s0)
20400ce8:	e3042a23          	sw	a6,-460(s0)
20400cec:	b795                	j	20400c50 <_ZN13LiquidCrystal5beginEhhh+0x54e>
      while (later < current) {
20400cee:	e3042603          	lw	a2,-464(s0)
20400cf2:	e3442683          	lw	a3,-460(s0)
20400cf6:	ef442703          	lw	a4,-268(s0)
20400cfa:	87b6                	mv	a5,a3
20400cfc:	00f76d63          	bltu	a4,a5,20400d16 <_ZN13LiquidCrystal5beginEhhh+0x614>
20400d00:	ef442703          	lw	a4,-268(s0)
20400d04:	87b6                	mv	a5,a3
20400d06:	08f71463          	bne	a4,a5,20400d8e <_ZN13LiquidCrystal5beginEhhh+0x68c>
20400d0a:	ef042703          	lw	a4,-272(s0)
20400d0e:	87b2                	mv	a5,a2
20400d10:	00f76363          	bltu	a4,a5,20400d16 <_ZN13LiquidCrystal5beginEhhh+0x614>
20400d14:	a8ad                	j	20400d8e <_ZN13LiquidCrystal5beginEhhh+0x68c>
	rdmcycle(&current);
20400d16:	b80027f3          	csrr	a5,mcycleh
20400d1a:	b0002773          	csrr	a4,mcycle
20400d1e:	b80026f3          	csrr	a3,mcycleh
20400d22:	fed79ae3          	bne	a5,a3,20400d16 <_ZN13LiquidCrystal5beginEhhh+0x614>
20400d26:	eef42023          	sw	a5,-288(s0)
20400d2a:	ece42e23          	sw	a4,-292(s0)
20400d2e:	ecd42c23          	sw	a3,-296(s0)
20400d32:	edc42783          	lw	a5,-292(s0)
20400d36:	c0f42c23          	sw	a5,-1000(s0)
20400d3a:	c0042e23          	sw	zero,-996(s0)
20400d3e:	ee042783          	lw	a5,-288(s0)
20400d42:	c0f42823          	sw	a5,-1008(s0)
20400d46:	c0042a23          	sw	zero,-1004(s0)
20400d4a:	c1042783          	lw	a5,-1008(s0)
20400d4e:	00079793          	slli	a5,a5,0x0
20400d52:	c0f42623          	sw	a5,-1012(s0)
20400d56:	c0042423          	sw	zero,-1016(s0)
20400d5a:	c1842683          	lw	a3,-1000(s0)
20400d5e:	c1c42703          	lw	a4,-996(s0)
20400d62:	8636                	mv	a2,a3
20400d64:	c0842783          	lw	a5,-1016(s0)
20400d68:	c0c42803          	lw	a6,-1012(s0)
20400d6c:	85be                	mv	a1,a5
20400d6e:	8e4d                	or	a2,a2,a1
20400d70:	c0c42023          	sw	a2,-1024(s0)
20400d74:	87c2                	mv	a5,a6
20400d76:	8fd9                	or	a5,a5,a4
20400d78:	c0f42223          	sw	a5,-1020(s0)
20400d7c:	c0042783          	lw	a5,-1024(s0)
20400d80:	c0442803          	lw	a6,-1020(s0)
20400d84:	e2f42823          	sw	a5,-464(s0)
20400d88:	e3042a23          	sw	a6,-460(s0)
20400d8c:	b78d                	j	20400cee <_ZN13LiquidCrystal5beginEhhh+0x5ec>
      while (current < later) {
20400d8e:	e3042603          	lw	a2,-464(s0)
20400d92:	e3442683          	lw	a3,-460(s0)
20400d96:	ef442703          	lw	a4,-268(s0)
20400d9a:	87b6                	mv	a5,a3
20400d9c:	00e7ec63          	bltu	a5,a4,20400db4 <_ZN13LiquidCrystal5beginEhhh+0x6b2>
20400da0:	ef442703          	lw	a4,-268(s0)
20400da4:	87b6                	mv	a5,a3
20400da6:	08f71463          	bne	a4,a5,20400e2e <_ZN13LiquidCrystal5beginEhhh+0x72c>
20400daa:	ef042703          	lw	a4,-272(s0)
20400dae:	87b2                	mv	a5,a2
20400db0:	06e7ff63          	bleu	a4,a5,20400e2e <_ZN13LiquidCrystal5beginEhhh+0x72c>
	rdmcycle(&current);
20400db4:	b80027f3          	csrr	a5,mcycleh
20400db8:	b0002773          	csrr	a4,mcycle
20400dbc:	b80026f3          	csrr	a3,mcycleh
20400dc0:	fed79ae3          	bne	a5,a3,20400db4 <_ZN13LiquidCrystal5beginEhhh+0x6b2>
20400dc4:	ecf42a23          	sw	a5,-300(s0)
20400dc8:	ece42823          	sw	a4,-304(s0)
20400dcc:	ecd42623          	sw	a3,-308(s0)
20400dd0:	ed042783          	lw	a5,-304(s0)
20400dd4:	bef42c23          	sw	a5,-1032(s0)
20400dd8:	be042e23          	sw	zero,-1028(s0)
20400ddc:	ed442783          	lw	a5,-300(s0)
20400de0:	bef42823          	sw	a5,-1040(s0)
20400de4:	be042a23          	sw	zero,-1036(s0)
20400de8:	bf042783          	lw	a5,-1040(s0)
20400dec:	00079793          	slli	a5,a5,0x0
20400df0:	bef42623          	sw	a5,-1044(s0)
20400df4:	be042423          	sw	zero,-1048(s0)
20400df8:	bf842683          	lw	a3,-1032(s0)
20400dfc:	bfc42703          	lw	a4,-1028(s0)
20400e00:	8636                	mv	a2,a3
20400e02:	be842783          	lw	a5,-1048(s0)
20400e06:	bec42803          	lw	a6,-1044(s0)
20400e0a:	85be                	mv	a1,a5
20400e0c:	8e4d                	or	a2,a2,a1
20400e0e:	bec42023          	sw	a2,-1056(s0)
20400e12:	87c2                	mv	a5,a6
20400e14:	8fd9                	or	a5,a5,a4
20400e16:	bef42223          	sw	a5,-1052(s0)
20400e1a:	be042783          	lw	a5,-1056(s0)
20400e1e:	be442803          	lw	a6,-1052(s0)
20400e22:	e2f42823          	sw	a5,-464(s0)
20400e26:	e3042a23          	sw	a6,-460(s0)
20400e2a:	b795                	j	20400d8e <_ZN13LiquidCrystal5beginEhhh+0x68c>
    return;
20400e2c:	0001                	nop
    delayMicroseconds(4500); // wait min 4.1ms

    // second try
    write4bits(0x03);
20400e2e:	458d                	li	a1,3
20400e30:	e0c42503          	lw	a0,-500(s0)
20400e34:	2b1010ef          	jal	ra,204028e4 <_ZN13LiquidCrystal10write4bitsEh>
20400e38:	6785                	lui	a5,0x1
20400e3a:	19478793          	addi	a5,a5,404 # 1194 <__stack_size+0x994>
20400e3e:	f4f42423          	sw	a5,-184(s0)
  if (usec == 0) {
20400e42:	f4842783          	lw	a5,-184(s0)
20400e46:	2c078e63          	beqz	a5,20401122 <_ZN13LiquidCrystal5beginEhhh+0xa20>
  rdmcycle(&current);
20400e4a:	b80027f3          	csrr	a5,mcycleh
20400e4e:	b0002773          	csrr	a4,mcycle
20400e52:	b80026f3          	csrr	a3,mcycleh
20400e56:	fed79ae3          	bne	a5,a3,20400e4a <_ZN13LiquidCrystal5beginEhhh+0x748>
20400e5a:	f4f42223          	sw	a5,-188(s0)
20400e5e:	f4e42023          	sw	a4,-192(s0)
20400e62:	f2d42e23          	sw	a3,-196(s0)
20400e66:	f4042783          	lw	a5,-192(s0)
20400e6a:	cef42423          	sw	a5,-792(s0)
20400e6e:	ce042623          	sw	zero,-788(s0)
20400e72:	f4442783          	lw	a5,-188(s0)
20400e76:	cef42023          	sw	a5,-800(s0)
20400e7a:	ce042223          	sw	zero,-796(s0)
20400e7e:	ce042783          	lw	a5,-800(s0)
20400e82:	00079793          	slli	a5,a5,0x0
20400e86:	ccf42e23          	sw	a5,-804(s0)
20400e8a:	cc042c23          	sw	zero,-808(s0)
20400e8e:	ce842683          	lw	a3,-792(s0)
20400e92:	cec42703          	lw	a4,-788(s0)
20400e96:	8636                	mv	a2,a3
20400e98:	cd842783          	lw	a5,-808(s0)
20400e9c:	cdc42803          	lw	a6,-804(s0)
20400ea0:	85be                	mv	a1,a5
20400ea2:	8e4d                	or	a2,a2,a1
20400ea4:	ccc42823          	sw	a2,-816(s0)
20400ea8:	87c2                	mv	a5,a6
20400eaa:	8fd9                	or	a5,a5,a4
20400eac:	ccf42a23          	sw	a5,-812(s0)
20400eb0:	cd042783          	lw	a5,-816(s0)
20400eb4:	cd442803          	lw	a6,-812(s0)
20400eb8:	e2f42423          	sw	a5,-472(s0)
20400ebc:	e3042623          	sw	a6,-468(s0)
  later = current + usec * (F_CPU/1000000);
20400ec0:	f4842783          	lw	a5,-184(s0)
20400ec4:	ccf42423          	sw	a5,-824(s0)
20400ec8:	cc042623          	sw	zero,-820(s0)
20400ecc:	cc842683          	lw	a3,-824(s0)
20400ed0:	ccc42703          	lw	a4,-820(s0)
20400ed4:	87b6                	mv	a5,a3
20400ed6:	83f1                	srli	a5,a5,0x1c
20400ed8:	863a                	mv	a2,a4
20400eda:	0612                	slli	a2,a2,0x4
20400edc:	dec42e23          	sw	a2,-516(s0)
20400ee0:	dfc42603          	lw	a2,-516(s0)
20400ee4:	8fd1                	or	a5,a5,a2
20400ee6:	def42e23          	sw	a5,-516(s0)
20400eea:	87b6                	mv	a5,a3
20400eec:	0792                	slli	a5,a5,0x4
20400eee:	def42c23          	sw	a5,-520(s0)
20400ef2:	df842783          	lw	a5,-520(s0)
20400ef6:	dfc42803          	lw	a6,-516(s0)
20400efa:	e2842683          	lw	a3,-472(s0)
20400efe:	e2c42703          	lw	a4,-468(s0)
20400f02:	00d78533          	add	a0,a5,a3
20400f06:	862a                	mv	a2,a0
20400f08:	00f63633          	sltu	a2,a2,a5
20400f0c:	00e805b3          	add	a1,a6,a4
20400f10:	00b607b3          	add	a5,a2,a1
20400f14:	85be                	mv	a1,a5
20400f16:	f2a42823          	sw	a0,-208(s0)
20400f1a:	f2b42a23          	sw	a1,-204(s0)
  if (later > current) // usual case
20400f1e:	e2842603          	lw	a2,-472(s0)
20400f22:	e2c42683          	lw	a3,-468(s0)
20400f26:	f3442703          	lw	a4,-204(s0)
20400f2a:	87b6                	mv	a5,a3
20400f2c:	00e7ed63          	bltu	a5,a4,20400f46 <_ZN13LiquidCrystal5beginEhhh+0x844>
20400f30:	f3442703          	lw	a4,-204(s0)
20400f34:	87b6                	mv	a5,a3
20400f36:	0af71763          	bne	a4,a5,20400fe4 <_ZN13LiquidCrystal5beginEhhh+0x8e2>
20400f3a:	f3042703          	lw	a4,-208(s0)
20400f3e:	87b2                	mv	a5,a2
20400f40:	00e7e363          	bltu	a5,a4,20400f46 <_ZN13LiquidCrystal5beginEhhh+0x844>
20400f44:	a045                	j	20400fe4 <_ZN13LiquidCrystal5beginEhhh+0x8e2>
      while (later > current) {
20400f46:	e2842603          	lw	a2,-472(s0)
20400f4a:	e2c42683          	lw	a3,-468(s0)
20400f4e:	f3442703          	lw	a4,-204(s0)
20400f52:	87b6                	mv	a5,a3
20400f54:	00e7ec63          	bltu	a5,a4,20400f6c <_ZN13LiquidCrystal5beginEhhh+0x86a>
20400f58:	f3442703          	lw	a4,-204(s0)
20400f5c:	87b6                	mv	a5,a3
20400f5e:	1cf71363          	bne	a4,a5,20401124 <_ZN13LiquidCrystal5beginEhhh+0xa22>
20400f62:	f3042703          	lw	a4,-208(s0)
20400f66:	87b2                	mv	a5,a2
20400f68:	1ae7fe63          	bleu	a4,a5,20401124 <_ZN13LiquidCrystal5beginEhhh+0xa22>
	rdmcycle(&current);
20400f6c:	b80027f3          	csrr	a5,mcycleh
20400f70:	b0002773          	csrr	a4,mcycle
20400f74:	b80026f3          	csrr	a3,mcycleh
20400f78:	fed79ae3          	bne	a5,a3,20400f6c <_ZN13LiquidCrystal5beginEhhh+0x86a>
20400f7c:	f2f42623          	sw	a5,-212(s0)
20400f80:	f2e42423          	sw	a4,-216(s0)
20400f84:	f2d42223          	sw	a3,-220(s0)
20400f88:	f2842783          	lw	a5,-216(s0)
20400f8c:	ccf42023          	sw	a5,-832(s0)
20400f90:	cc042223          	sw	zero,-828(s0)
20400f94:	f2c42783          	lw	a5,-212(s0)
20400f98:	caf42c23          	sw	a5,-840(s0)
20400f9c:	ca042e23          	sw	zero,-836(s0)
20400fa0:	cb842783          	lw	a5,-840(s0)
20400fa4:	00079793          	slli	a5,a5,0x0
20400fa8:	caf42a23          	sw	a5,-844(s0)
20400fac:	ca042823          	sw	zero,-848(s0)
20400fb0:	cc042683          	lw	a3,-832(s0)
20400fb4:	cc442703          	lw	a4,-828(s0)
20400fb8:	8636                	mv	a2,a3
20400fba:	cb042783          	lw	a5,-848(s0)
20400fbe:	cb442803          	lw	a6,-844(s0)
20400fc2:	85be                	mv	a1,a5
20400fc4:	8e4d                	or	a2,a2,a1
20400fc6:	cac42423          	sw	a2,-856(s0)
20400fca:	87c2                	mv	a5,a6
20400fcc:	8fd9                	or	a5,a5,a4
20400fce:	caf42623          	sw	a5,-852(s0)
20400fd2:	ca842783          	lw	a5,-856(s0)
20400fd6:	cac42803          	lw	a6,-852(s0)
20400fda:	e2f42423          	sw	a5,-472(s0)
20400fde:	e3042623          	sw	a6,-468(s0)
20400fe2:	b795                	j	20400f46 <_ZN13LiquidCrystal5beginEhhh+0x844>
      while (later < current) {
20400fe4:	e2842603          	lw	a2,-472(s0)
20400fe8:	e2c42683          	lw	a3,-468(s0)
20400fec:	f3442703          	lw	a4,-204(s0)
20400ff0:	87b6                	mv	a5,a3
20400ff2:	00f76d63          	bltu	a4,a5,2040100c <_ZN13LiquidCrystal5beginEhhh+0x90a>
20400ff6:	f3442703          	lw	a4,-204(s0)
20400ffa:	87b6                	mv	a5,a3
20400ffc:	08f71463          	bne	a4,a5,20401084 <_ZN13LiquidCrystal5beginEhhh+0x982>
20401000:	f3042703          	lw	a4,-208(s0)
20401004:	87b2                	mv	a5,a2
20401006:	00f76363          	bltu	a4,a5,2040100c <_ZN13LiquidCrystal5beginEhhh+0x90a>
2040100a:	a8ad                	j	20401084 <_ZN13LiquidCrystal5beginEhhh+0x982>
	rdmcycle(&current);
2040100c:	b80027f3          	csrr	a5,mcycleh
20401010:	b0002773          	csrr	a4,mcycle
20401014:	b80026f3          	csrr	a3,mcycleh
20401018:	fed79ae3          	bne	a5,a3,2040100c <_ZN13LiquidCrystal5beginEhhh+0x90a>
2040101c:	f2f42023          	sw	a5,-224(s0)
20401020:	f0e42e23          	sw	a4,-228(s0)
20401024:	f0d42c23          	sw	a3,-232(s0)
20401028:	f1c42783          	lw	a5,-228(s0)
2040102c:	caf42023          	sw	a5,-864(s0)
20401030:	ca042223          	sw	zero,-860(s0)
20401034:	f2042783          	lw	a5,-224(s0)
20401038:	c8f42c23          	sw	a5,-872(s0)
2040103c:	c8042e23          	sw	zero,-868(s0)
20401040:	c9842783          	lw	a5,-872(s0)
20401044:	00079793          	slli	a5,a5,0x0
20401048:	c8f42a23          	sw	a5,-876(s0)
2040104c:	c8042823          	sw	zero,-880(s0)
20401050:	ca042683          	lw	a3,-864(s0)
20401054:	ca442703          	lw	a4,-860(s0)
20401058:	8636                	mv	a2,a3
2040105a:	c9042783          	lw	a5,-880(s0)
2040105e:	c9442803          	lw	a6,-876(s0)
20401062:	85be                	mv	a1,a5
20401064:	8e4d                	or	a2,a2,a1
20401066:	c8c42423          	sw	a2,-888(s0)
2040106a:	87c2                	mv	a5,a6
2040106c:	8fd9                	or	a5,a5,a4
2040106e:	c8f42623          	sw	a5,-884(s0)
20401072:	c8842783          	lw	a5,-888(s0)
20401076:	c8c42803          	lw	a6,-884(s0)
2040107a:	e2f42423          	sw	a5,-472(s0)
2040107e:	e3042623          	sw	a6,-468(s0)
20401082:	b78d                	j	20400fe4 <_ZN13LiquidCrystal5beginEhhh+0x8e2>
      while (current < later) {
20401084:	e2842603          	lw	a2,-472(s0)
20401088:	e2c42683          	lw	a3,-468(s0)
2040108c:	f3442703          	lw	a4,-204(s0)
20401090:	87b6                	mv	a5,a3
20401092:	00e7ec63          	bltu	a5,a4,204010aa <_ZN13LiquidCrystal5beginEhhh+0x9a8>
20401096:	f3442703          	lw	a4,-204(s0)
2040109a:	87b6                	mv	a5,a3
2040109c:	08f71463          	bne	a4,a5,20401124 <_ZN13LiquidCrystal5beginEhhh+0xa22>
204010a0:	f3042703          	lw	a4,-208(s0)
204010a4:	87b2                	mv	a5,a2
204010a6:	06e7ff63          	bleu	a4,a5,20401124 <_ZN13LiquidCrystal5beginEhhh+0xa22>
	rdmcycle(&current);
204010aa:	b80027f3          	csrr	a5,mcycleh
204010ae:	b0002773          	csrr	a4,mcycle
204010b2:	b80026f3          	csrr	a3,mcycleh
204010b6:	fed79ae3          	bne	a5,a3,204010aa <_ZN13LiquidCrystal5beginEhhh+0x9a8>
204010ba:	f0f42a23          	sw	a5,-236(s0)
204010be:	f0e42823          	sw	a4,-240(s0)
204010c2:	f0d42623          	sw	a3,-244(s0)
204010c6:	f1042783          	lw	a5,-240(s0)
204010ca:	c8f42023          	sw	a5,-896(s0)
204010ce:	c8042223          	sw	zero,-892(s0)
204010d2:	f1442783          	lw	a5,-236(s0)
204010d6:	c6f42c23          	sw	a5,-904(s0)
204010da:	c6042e23          	sw	zero,-900(s0)
204010de:	c7842783          	lw	a5,-904(s0)
204010e2:	00079793          	slli	a5,a5,0x0
204010e6:	c6f42a23          	sw	a5,-908(s0)
204010ea:	c6042823          	sw	zero,-912(s0)
204010ee:	c8042683          	lw	a3,-896(s0)
204010f2:	c8442703          	lw	a4,-892(s0)
204010f6:	8636                	mv	a2,a3
204010f8:	c7042783          	lw	a5,-912(s0)
204010fc:	c7442803          	lw	a6,-908(s0)
20401100:	85be                	mv	a1,a5
20401102:	8e4d                	or	a2,a2,a1
20401104:	c6c42423          	sw	a2,-920(s0)
20401108:	87c2                	mv	a5,a6
2040110a:	8fd9                	or	a5,a5,a4
2040110c:	c6f42623          	sw	a5,-916(s0)
20401110:	c6842783          	lw	a5,-920(s0)
20401114:	c6c42803          	lw	a6,-916(s0)
20401118:	e2f42423          	sw	a5,-472(s0)
2040111c:	e3042623          	sw	a6,-468(s0)
20401120:	b795                	j	20401084 <_ZN13LiquidCrystal5beginEhhh+0x982>
    return;
20401122:	0001                	nop
    delayMicroseconds(4500); // wait min 4.1ms
    
    // third go!
    write4bits(0x03); 
20401124:	458d                	li	a1,3
20401126:	e0c42503          	lw	a0,-500(s0)
2040112a:	7ba010ef          	jal	ra,204028e4 <_ZN13LiquidCrystal10write4bitsEh>
2040112e:	09600793          	li	a5,150
20401132:	f8f42423          	sw	a5,-120(s0)
  if (usec == 0) {
20401136:	f8842783          	lw	a5,-120(s0)
2040113a:	2c078b63          	beqz	a5,20401410 <_ZN13LiquidCrystal5beginEhhh+0xd0e>
  rdmcycle(&current);
2040113e:	b80027f3          	csrr	a5,mcycleh
20401142:	b0002773          	csrr	a4,mcycle
20401146:	b80026f3          	csrr	a3,mcycleh
2040114a:	fed79ae3          	bne	a5,a3,2040113e <_ZN13LiquidCrystal5beginEhhh+0xa3c>
2040114e:	f8f42223          	sw	a5,-124(s0)
20401152:	f8e42023          	sw	a4,-128(s0)
20401156:	f6d42e23          	sw	a3,-132(s0)
2040115a:	f8042783          	lw	a5,-128(s0)
2040115e:	d6f42823          	sw	a5,-656(s0)
20401162:	d6042a23          	sw	zero,-652(s0)
20401166:	f8442783          	lw	a5,-124(s0)
2040116a:	d6f42423          	sw	a5,-664(s0)
2040116e:	d6042623          	sw	zero,-660(s0)
20401172:	d6842783          	lw	a5,-664(s0)
20401176:	00079793          	slli	a5,a5,0x0
2040117a:	d6f42223          	sw	a5,-668(s0)
2040117e:	d6042023          	sw	zero,-672(s0)
20401182:	d7042683          	lw	a3,-656(s0)
20401186:	d7442703          	lw	a4,-652(s0)
2040118a:	8636                	mv	a2,a3
2040118c:	d6042783          	lw	a5,-672(s0)
20401190:	d6442803          	lw	a6,-668(s0)
20401194:	85be                	mv	a1,a5
20401196:	8e4d                	or	a2,a2,a1
20401198:	d4c42c23          	sw	a2,-680(s0)
2040119c:	87c2                	mv	a5,a6
2040119e:	8fd9                	or	a5,a5,a4
204011a0:	d4f42e23          	sw	a5,-676(s0)
204011a4:	d5842783          	lw	a5,-680(s0)
204011a8:	d5c42803          	lw	a6,-676(s0)
204011ac:	e2f42023          	sw	a5,-480(s0)
204011b0:	e3042223          	sw	a6,-476(s0)
  later = current + usec * (F_CPU/1000000);
204011b4:	f8842783          	lw	a5,-120(s0)
204011b8:	d4f42823          	sw	a5,-688(s0)
204011bc:	d4042a23          	sw	zero,-684(s0)
204011c0:	d5042683          	lw	a3,-688(s0)
204011c4:	d5442703          	lw	a4,-684(s0)
204011c8:	87b6                	mv	a5,a3
204011ca:	83f1                	srli	a5,a5,0x1c
204011cc:	863a                	mv	a2,a4
204011ce:	0612                	slli	a2,a2,0x4
204011d0:	e0c42223          	sw	a2,-508(s0)
204011d4:	e0442603          	lw	a2,-508(s0)
204011d8:	8fd1                	or	a5,a5,a2
204011da:	e0f42223          	sw	a5,-508(s0)
204011de:	87b6                	mv	a5,a3
204011e0:	0792                	slli	a5,a5,0x4
204011e2:	e0f42023          	sw	a5,-512(s0)
204011e6:	e0042683          	lw	a3,-512(s0)
204011ea:	e0442703          	lw	a4,-508(s0)
204011ee:	e2042503          	lw	a0,-480(s0)
204011f2:	e2442583          	lw	a1,-476(s0)
204011f6:	00a687b3          	add	a5,a3,a0
204011fa:	863e                	mv	a2,a5
204011fc:	00d63633          	sltu	a2,a2,a3
20401200:	00b70833          	add	a6,a4,a1
20401204:	01060733          	add	a4,a2,a6
20401208:	883a                	mv	a6,a4
2040120a:	f6f42823          	sw	a5,-144(s0)
2040120e:	f7042a23          	sw	a6,-140(s0)
  if (later > current) // usual case
20401212:	e2042683          	lw	a3,-480(s0)
20401216:	e2442703          	lw	a4,-476(s0)
2040121a:	f7442783          	lw	a5,-140(s0)
2040121e:	863a                	mv	a2,a4
20401220:	00f66d63          	bltu	a2,a5,2040123a <_ZN13LiquidCrystal5beginEhhh+0xb38>
20401224:	f7442783          	lw	a5,-140(s0)
20401228:	863a                	mv	a2,a4
2040122a:	0ac79663          	bne	a5,a2,204012d6 <_ZN13LiquidCrystal5beginEhhh+0xbd4>
2040122e:	f7042783          	lw	a5,-144(s0)
20401232:	8736                	mv	a4,a3
20401234:	00f76363          	bltu	a4,a5,2040123a <_ZN13LiquidCrystal5beginEhhh+0xb38>
20401238:	a879                	j	204012d6 <_ZN13LiquidCrystal5beginEhhh+0xbd4>
      while (later > current) {
2040123a:	e2042783          	lw	a5,-480(s0)
2040123e:	e2442803          	lw	a6,-476(s0)
20401242:	f7442703          	lw	a4,-140(s0)
20401246:	86c2                	mv	a3,a6
20401248:	00e6eb63          	bltu	a3,a4,2040125e <_ZN13LiquidCrystal5beginEhhh+0xb5c>
2040124c:	f7442703          	lw	a4,-140(s0)
20401250:	86c2                	mv	a3,a6
20401252:	1cd71063          	bne	a4,a3,20401412 <_ZN13LiquidCrystal5beginEhhh+0xd10>
20401256:	f7042703          	lw	a4,-144(s0)
2040125a:	1ae7fc63          	bleu	a4,a5,20401412 <_ZN13LiquidCrystal5beginEhhh+0xd10>
	rdmcycle(&current);
2040125e:	b80026f3          	csrr	a3,mcycleh
20401262:	b0002773          	csrr	a4,mcycle
20401266:	b80027f3          	csrr	a5,mcycleh
2040126a:	fef69ae3          	bne	a3,a5,2040125e <_ZN13LiquidCrystal5beginEhhh+0xb5c>
2040126e:	f6d42623          	sw	a3,-148(s0)
20401272:	f6e42423          	sw	a4,-152(s0)
20401276:	f6f42223          	sw	a5,-156(s0)
2040127a:	f6842783          	lw	a5,-152(s0)
2040127e:	d4f42423          	sw	a5,-696(s0)
20401282:	d4042623          	sw	zero,-692(s0)
20401286:	f6c42783          	lw	a5,-148(s0)
2040128a:	d4f42023          	sw	a5,-704(s0)
2040128e:	d4042223          	sw	zero,-700(s0)
20401292:	d4042783          	lw	a5,-704(s0)
20401296:	00079793          	slli	a5,a5,0x0
2040129a:	d2f42e23          	sw	a5,-708(s0)
2040129e:	d2042c23          	sw	zero,-712(s0)
204012a2:	d4842683          	lw	a3,-696(s0)
204012a6:	d4c42703          	lw	a4,-692(s0)
204012aa:	8636                	mv	a2,a3
204012ac:	d3842783          	lw	a5,-712(s0)
204012b0:	d3c42803          	lw	a6,-708(s0)
204012b4:	85be                	mv	a1,a5
204012b6:	8e4d                	or	a2,a2,a1
204012b8:	d2c42823          	sw	a2,-720(s0)
204012bc:	87c2                	mv	a5,a6
204012be:	8fd9                	or	a5,a5,a4
204012c0:	d2f42a23          	sw	a5,-716(s0)
204012c4:	d3042783          	lw	a5,-720(s0)
204012c8:	d3442803          	lw	a6,-716(s0)
204012cc:	e2f42023          	sw	a5,-480(s0)
204012d0:	e3042223          	sw	a6,-476(s0)
204012d4:	b79d                	j	2040123a <_ZN13LiquidCrystal5beginEhhh+0xb38>
      while (later < current) {
204012d6:	e2042783          	lw	a5,-480(s0)
204012da:	e2442803          	lw	a6,-476(s0)
204012de:	f7442703          	lw	a4,-140(s0)
204012e2:	86c2                	mv	a3,a6
204012e4:	00d76c63          	bltu	a4,a3,204012fc <_ZN13LiquidCrystal5beginEhhh+0xbfa>
204012e8:	f7442703          	lw	a4,-140(s0)
204012ec:	86c2                	mv	a3,a6
204012ee:	08d71363          	bne	a4,a3,20401374 <_ZN13LiquidCrystal5beginEhhh+0xc72>
204012f2:	f7042703          	lw	a4,-144(s0)
204012f6:	00f76363          	bltu	a4,a5,204012fc <_ZN13LiquidCrystal5beginEhhh+0xbfa>
204012fa:	a8ad                	j	20401374 <_ZN13LiquidCrystal5beginEhhh+0xc72>
	rdmcycle(&current);
204012fc:	b80026f3          	csrr	a3,mcycleh
20401300:	b0002773          	csrr	a4,mcycle
20401304:	b80027f3          	csrr	a5,mcycleh
20401308:	fef69ae3          	bne	a3,a5,204012fc <_ZN13LiquidCrystal5beginEhhh+0xbfa>
2040130c:	f6d42023          	sw	a3,-160(s0)
20401310:	f4e42e23          	sw	a4,-164(s0)
20401314:	f4f42c23          	sw	a5,-168(s0)
20401318:	f5c42783          	lw	a5,-164(s0)
2040131c:	d2f42423          	sw	a5,-728(s0)
20401320:	d2042623          	sw	zero,-724(s0)
20401324:	f6042783          	lw	a5,-160(s0)
20401328:	d2f42023          	sw	a5,-736(s0)
2040132c:	d2042223          	sw	zero,-732(s0)
20401330:	d2042783          	lw	a5,-736(s0)
20401334:	00079793          	slli	a5,a5,0x0
20401338:	d0f42e23          	sw	a5,-740(s0)
2040133c:	d0042c23          	sw	zero,-744(s0)
20401340:	d2842683          	lw	a3,-728(s0)
20401344:	d2c42703          	lw	a4,-724(s0)
20401348:	8636                	mv	a2,a3
2040134a:	d1842783          	lw	a5,-744(s0)
2040134e:	d1c42803          	lw	a6,-740(s0)
20401352:	85be                	mv	a1,a5
20401354:	8e4d                	or	a2,a2,a1
20401356:	d0c42823          	sw	a2,-752(s0)
2040135a:	87c2                	mv	a5,a6
2040135c:	8fd9                	or	a5,a5,a4
2040135e:	d0f42a23          	sw	a5,-748(s0)
20401362:	d1042783          	lw	a5,-752(s0)
20401366:	d1442803          	lw	a6,-748(s0)
2040136a:	e2f42023          	sw	a5,-480(s0)
2040136e:	e3042223          	sw	a6,-476(s0)
20401372:	b795                	j	204012d6 <_ZN13LiquidCrystal5beginEhhh+0xbd4>
      while (current < later) {
20401374:	e2042783          	lw	a5,-480(s0)
20401378:	e2442803          	lw	a6,-476(s0)
2040137c:	f7442703          	lw	a4,-140(s0)
20401380:	86c2                	mv	a3,a6
20401382:	00e6eb63          	bltu	a3,a4,20401398 <_ZN13LiquidCrystal5beginEhhh+0xc96>
20401386:	f7442703          	lw	a4,-140(s0)
2040138a:	86c2                	mv	a3,a6
2040138c:	08d71363          	bne	a4,a3,20401412 <_ZN13LiquidCrystal5beginEhhh+0xd10>
20401390:	f7042703          	lw	a4,-144(s0)
20401394:	06e7ff63          	bleu	a4,a5,20401412 <_ZN13LiquidCrystal5beginEhhh+0xd10>
	rdmcycle(&current);
20401398:	b80026f3          	csrr	a3,mcycleh
2040139c:	b0002773          	csrr	a4,mcycle
204013a0:	b80027f3          	csrr	a5,mcycleh
204013a4:	fef69ae3          	bne	a3,a5,20401398 <_ZN13LiquidCrystal5beginEhhh+0xc96>
204013a8:	f4d42a23          	sw	a3,-172(s0)
204013ac:	f4e42823          	sw	a4,-176(s0)
204013b0:	f4f42623          	sw	a5,-180(s0)
204013b4:	f5042783          	lw	a5,-176(s0)
204013b8:	d0f42423          	sw	a5,-760(s0)
204013bc:	d0042623          	sw	zero,-756(s0)
204013c0:	f5442783          	lw	a5,-172(s0)
204013c4:	d0f42023          	sw	a5,-768(s0)
204013c8:	d0042223          	sw	zero,-764(s0)
204013cc:	d0042783          	lw	a5,-768(s0)
204013d0:	00079793          	slli	a5,a5,0x0
204013d4:	cef42e23          	sw	a5,-772(s0)
204013d8:	ce042c23          	sw	zero,-776(s0)
204013dc:	d0842683          	lw	a3,-760(s0)
204013e0:	d0c42703          	lw	a4,-756(s0)
204013e4:	8636                	mv	a2,a3
204013e6:	cf842783          	lw	a5,-776(s0)
204013ea:	cfc42803          	lw	a6,-772(s0)
204013ee:	85be                	mv	a1,a5
204013f0:	8e4d                	or	a2,a2,a1
204013f2:	cec42823          	sw	a2,-784(s0)
204013f6:	87c2                	mv	a5,a6
204013f8:	8fd9                	or	a5,a5,a4
204013fa:	cef42a23          	sw	a5,-780(s0)
204013fe:	cf042783          	lw	a5,-784(s0)
20401402:	cf442803          	lw	a6,-780(s0)
20401406:	e2f42023          	sw	a5,-480(s0)
2040140a:	e3042223          	sw	a6,-476(s0)
2040140e:	b79d                	j	20401374 <_ZN13LiquidCrystal5beginEhhh+0xc72>
    return;
20401410:	0001                	nop
    delayMicroseconds(150);

    // finally, set to 4-bit interface
    write4bits(0x02); 
20401412:	4589                	li	a1,2
20401414:	e0c42503          	lw	a0,-500(s0)
20401418:	4cc010ef          	jal	ra,204028e4 <_ZN13LiquidCrystal10write4bitsEh>
2040141c:	ad39                	j	20401a3a <_ZN13LiquidCrystal5beginEhhh+0x1338>
  } else {
    // this is according to the hitachi HD44780 datasheet
    // page 45 figure 23

    // Send function set command sequence
    command(LCD_FUNCTIONSET | _displayfunction);
2040141e:	e0c42783          	lw	a5,-500(s0)
20401422:	0137c783          	lbu	a5,19(a5)
20401426:	0207e793          	ori	a5,a5,32
2040142a:	0ff7f793          	andi	a5,a5,255
2040142e:	85be                	mv	a1,a5
20401430:	e0c42503          	lw	a0,-500(s0)
20401434:	2ad000ef          	jal	ra,20401ee0 <_ZN13LiquidCrystal7commandEh>
20401438:	6785                	lui	a5,0x1
2040143a:	19478793          	addi	a5,a5,404 # 1194 <__stack_size+0x994>
2040143e:	e8f42423          	sw	a5,-376(s0)
  if (usec == 0) {
20401442:	e8842783          	lw	a5,-376(s0)
20401446:	2c078e63          	beqz	a5,20401722 <_ZN13LiquidCrystal5beginEhhh+0x1020>
  rdmcycle(&current);
2040144a:	b80027f3          	csrr	a5,mcycleh
2040144e:	b0002773          	csrr	a4,mcycle
20401452:	b80026f3          	csrr	a3,mcycleh
20401456:	fed79ae3          	bne	a5,a3,2040144a <_ZN13LiquidCrystal5beginEhhh+0xd48>
2040145a:	e8f42223          	sw	a5,-380(s0)
2040145e:	e8e42023          	sw	a4,-384(s0)
20401462:	e6d42e23          	sw	a3,-388(s0)
20401466:	e8042783          	lw	a5,-384(s0)
2040146a:	b4f42823          	sw	a5,-1200(s0)
2040146e:	b4042a23          	sw	zero,-1196(s0)
20401472:	e8442783          	lw	a5,-380(s0)
20401476:	b4f42423          	sw	a5,-1208(s0)
2040147a:	b4042623          	sw	zero,-1204(s0)
2040147e:	b4842783          	lw	a5,-1208(s0)
20401482:	00079793          	slli	a5,a5,0x0
20401486:	b4f42223          	sw	a5,-1212(s0)
2040148a:	b4042023          	sw	zero,-1216(s0)
2040148e:	b5042683          	lw	a3,-1200(s0)
20401492:	b5442703          	lw	a4,-1196(s0)
20401496:	8636                	mv	a2,a3
20401498:	b4042783          	lw	a5,-1216(s0)
2040149c:	b4442803          	lw	a6,-1212(s0)
204014a0:	85be                	mv	a1,a5
204014a2:	8e4d                	or	a2,a2,a1
204014a4:	b2c42c23          	sw	a2,-1224(s0)
204014a8:	87c2                	mv	a5,a6
204014aa:	8fd9                	or	a5,a5,a4
204014ac:	b2f42e23          	sw	a5,-1220(s0)
204014b0:	b3842783          	lw	a5,-1224(s0)
204014b4:	b3c42803          	lw	a6,-1220(s0)
204014b8:	e4f42023          	sw	a5,-448(s0)
204014bc:	e5042223          	sw	a6,-444(s0)
  later = current + usec * (F_CPU/1000000);
204014c0:	e8842783          	lw	a5,-376(s0)
204014c4:	b2f42823          	sw	a5,-1232(s0)
204014c8:	b2042a23          	sw	zero,-1228(s0)
204014cc:	b3042683          	lw	a3,-1232(s0)
204014d0:	b3442703          	lw	a4,-1228(s0)
204014d4:	87b6                	mv	a5,a3
204014d6:	83f1                	srli	a5,a5,0x1c
204014d8:	863a                	mv	a2,a4
204014da:	0612                	slli	a2,a2,0x4
204014dc:	dec42223          	sw	a2,-540(s0)
204014e0:	de442603          	lw	a2,-540(s0)
204014e4:	8fd1                	or	a5,a5,a2
204014e6:	def42223          	sw	a5,-540(s0)
204014ea:	87b6                	mv	a5,a3
204014ec:	0792                	slli	a5,a5,0x4
204014ee:	def42023          	sw	a5,-544(s0)
204014f2:	de042783          	lw	a5,-544(s0)
204014f6:	de442803          	lw	a6,-540(s0)
204014fa:	e4042683          	lw	a3,-448(s0)
204014fe:	e4442703          	lw	a4,-444(s0)
20401502:	00d78533          	add	a0,a5,a3
20401506:	862a                	mv	a2,a0
20401508:	00f63633          	sltu	a2,a2,a5
2040150c:	00e805b3          	add	a1,a6,a4
20401510:	00b607b3          	add	a5,a2,a1
20401514:	85be                	mv	a1,a5
20401516:	e6a42823          	sw	a0,-400(s0)
2040151a:	e6b42a23          	sw	a1,-396(s0)
  if (later > current) // usual case
2040151e:	e4042603          	lw	a2,-448(s0)
20401522:	e4442683          	lw	a3,-444(s0)
20401526:	e7442703          	lw	a4,-396(s0)
2040152a:	87b6                	mv	a5,a3
2040152c:	00e7ed63          	bltu	a5,a4,20401546 <_ZN13LiquidCrystal5beginEhhh+0xe44>
20401530:	e7442703          	lw	a4,-396(s0)
20401534:	87b6                	mv	a5,a3
20401536:	0af71763          	bne	a4,a5,204015e4 <_ZN13LiquidCrystal5beginEhhh+0xee2>
2040153a:	e7042703          	lw	a4,-400(s0)
2040153e:	87b2                	mv	a5,a2
20401540:	00e7e363          	bltu	a5,a4,20401546 <_ZN13LiquidCrystal5beginEhhh+0xe44>
20401544:	a045                	j	204015e4 <_ZN13LiquidCrystal5beginEhhh+0xee2>
      while (later > current) {
20401546:	e4042603          	lw	a2,-448(s0)
2040154a:	e4442683          	lw	a3,-444(s0)
2040154e:	e7442703          	lw	a4,-396(s0)
20401552:	87b6                	mv	a5,a3
20401554:	00e7ec63          	bltu	a5,a4,2040156c <_ZN13LiquidCrystal5beginEhhh+0xe6a>
20401558:	e7442703          	lw	a4,-396(s0)
2040155c:	87b6                	mv	a5,a3
2040155e:	1cf71363          	bne	a4,a5,20401724 <_ZN13LiquidCrystal5beginEhhh+0x1022>
20401562:	e7042703          	lw	a4,-400(s0)
20401566:	87b2                	mv	a5,a2
20401568:	1ae7fe63          	bleu	a4,a5,20401724 <_ZN13LiquidCrystal5beginEhhh+0x1022>
	rdmcycle(&current);
2040156c:	b80027f3          	csrr	a5,mcycleh
20401570:	b0002773          	csrr	a4,mcycle
20401574:	b80026f3          	csrr	a3,mcycleh
20401578:	fed79ae3          	bne	a5,a3,2040156c <_ZN13LiquidCrystal5beginEhhh+0xe6a>
2040157c:	e6f42623          	sw	a5,-404(s0)
20401580:	e6e42423          	sw	a4,-408(s0)
20401584:	e6d42223          	sw	a3,-412(s0)
20401588:	e6842783          	lw	a5,-408(s0)
2040158c:	b2f42423          	sw	a5,-1240(s0)
20401590:	b2042623          	sw	zero,-1236(s0)
20401594:	e6c42783          	lw	a5,-404(s0)
20401598:	b2f42023          	sw	a5,-1248(s0)
2040159c:	b2042223          	sw	zero,-1244(s0)
204015a0:	b2042783          	lw	a5,-1248(s0)
204015a4:	00079793          	slli	a5,a5,0x0
204015a8:	b0f42e23          	sw	a5,-1252(s0)
204015ac:	b0042c23          	sw	zero,-1256(s0)
204015b0:	b2842683          	lw	a3,-1240(s0)
204015b4:	b2c42703          	lw	a4,-1236(s0)
204015b8:	8636                	mv	a2,a3
204015ba:	b1842783          	lw	a5,-1256(s0)
204015be:	b1c42803          	lw	a6,-1252(s0)
204015c2:	85be                	mv	a1,a5
204015c4:	8e4d                	or	a2,a2,a1
204015c6:	b0c42823          	sw	a2,-1264(s0)
204015ca:	87c2                	mv	a5,a6
204015cc:	8fd9                	or	a5,a5,a4
204015ce:	b0f42a23          	sw	a5,-1260(s0)
204015d2:	b1042783          	lw	a5,-1264(s0)
204015d6:	b1442803          	lw	a6,-1260(s0)
204015da:	e4f42023          	sw	a5,-448(s0)
204015de:	e5042223          	sw	a6,-444(s0)
204015e2:	b795                	j	20401546 <_ZN13LiquidCrystal5beginEhhh+0xe44>
      while (later < current) {
204015e4:	e4042603          	lw	a2,-448(s0)
204015e8:	e4442683          	lw	a3,-444(s0)
204015ec:	e7442703          	lw	a4,-396(s0)
204015f0:	87b6                	mv	a5,a3
204015f2:	00f76d63          	bltu	a4,a5,2040160c <_ZN13LiquidCrystal5beginEhhh+0xf0a>
204015f6:	e7442703          	lw	a4,-396(s0)
204015fa:	87b6                	mv	a5,a3
204015fc:	08f71463          	bne	a4,a5,20401684 <_ZN13LiquidCrystal5beginEhhh+0xf82>
20401600:	e7042703          	lw	a4,-400(s0)
20401604:	87b2                	mv	a5,a2
20401606:	00f76363          	bltu	a4,a5,2040160c <_ZN13LiquidCrystal5beginEhhh+0xf0a>
2040160a:	a8ad                	j	20401684 <_ZN13LiquidCrystal5beginEhhh+0xf82>
	rdmcycle(&current);
2040160c:	b80027f3          	csrr	a5,mcycleh
20401610:	b0002773          	csrr	a4,mcycle
20401614:	b80026f3          	csrr	a3,mcycleh
20401618:	fed79ae3          	bne	a5,a3,2040160c <_ZN13LiquidCrystal5beginEhhh+0xf0a>
2040161c:	e6f42023          	sw	a5,-416(s0)
20401620:	e4e42e23          	sw	a4,-420(s0)
20401624:	e4d42c23          	sw	a3,-424(s0)
20401628:	e5c42783          	lw	a5,-420(s0)
2040162c:	b0f42423          	sw	a5,-1272(s0)
20401630:	b0042623          	sw	zero,-1268(s0)
20401634:	e6042783          	lw	a5,-416(s0)
20401638:	b0f42023          	sw	a5,-1280(s0)
2040163c:	b0042223          	sw	zero,-1276(s0)
20401640:	b0042783          	lw	a5,-1280(s0)
20401644:	00079793          	slli	a5,a5,0x0
20401648:	aef42e23          	sw	a5,-1284(s0)
2040164c:	ae042c23          	sw	zero,-1288(s0)
20401650:	b0842683          	lw	a3,-1272(s0)
20401654:	b0c42703          	lw	a4,-1268(s0)
20401658:	8636                	mv	a2,a3
2040165a:	af842783          	lw	a5,-1288(s0)
2040165e:	afc42803          	lw	a6,-1284(s0)
20401662:	85be                	mv	a1,a5
20401664:	8e4d                	or	a2,a2,a1
20401666:	aec42823          	sw	a2,-1296(s0)
2040166a:	87c2                	mv	a5,a6
2040166c:	8fd9                	or	a5,a5,a4
2040166e:	aef42a23          	sw	a5,-1292(s0)
20401672:	af042783          	lw	a5,-1296(s0)
20401676:	af442803          	lw	a6,-1292(s0)
2040167a:	e4f42023          	sw	a5,-448(s0)
2040167e:	e5042223          	sw	a6,-444(s0)
20401682:	b78d                	j	204015e4 <_ZN13LiquidCrystal5beginEhhh+0xee2>
      while (current < later) {
20401684:	e4042603          	lw	a2,-448(s0)
20401688:	e4442683          	lw	a3,-444(s0)
2040168c:	e7442703          	lw	a4,-396(s0)
20401690:	87b6                	mv	a5,a3
20401692:	00e7ec63          	bltu	a5,a4,204016aa <_ZN13LiquidCrystal5beginEhhh+0xfa8>
20401696:	e7442703          	lw	a4,-396(s0)
2040169a:	87b6                	mv	a5,a3
2040169c:	08f71463          	bne	a4,a5,20401724 <_ZN13LiquidCrystal5beginEhhh+0x1022>
204016a0:	e7042703          	lw	a4,-400(s0)
204016a4:	87b2                	mv	a5,a2
204016a6:	06e7ff63          	bleu	a4,a5,20401724 <_ZN13LiquidCrystal5beginEhhh+0x1022>
	rdmcycle(&current);
204016aa:	b80027f3          	csrr	a5,mcycleh
204016ae:	b0002773          	csrr	a4,mcycle
204016b2:	b80026f3          	csrr	a3,mcycleh
204016b6:	fed79ae3          	bne	a5,a3,204016aa <_ZN13LiquidCrystal5beginEhhh+0xfa8>
204016ba:	e4f42a23          	sw	a5,-428(s0)
204016be:	e4e42823          	sw	a4,-432(s0)
204016c2:	e4d42623          	sw	a3,-436(s0)
204016c6:	e5042783          	lw	a5,-432(s0)
204016ca:	aef42423          	sw	a5,-1304(s0)
204016ce:	ae042623          	sw	zero,-1300(s0)
204016d2:	e5442783          	lw	a5,-428(s0)
204016d6:	aef42023          	sw	a5,-1312(s0)
204016da:	ae042223          	sw	zero,-1308(s0)
204016de:	ae042783          	lw	a5,-1312(s0)
204016e2:	00079793          	slli	a5,a5,0x0
204016e6:	acf42e23          	sw	a5,-1316(s0)
204016ea:	ac042c23          	sw	zero,-1320(s0)
204016ee:	ae842683          	lw	a3,-1304(s0)
204016f2:	aec42703          	lw	a4,-1300(s0)
204016f6:	8636                	mv	a2,a3
204016f8:	ad842783          	lw	a5,-1320(s0)
204016fc:	adc42803          	lw	a6,-1316(s0)
20401700:	85be                	mv	a1,a5
20401702:	8e4d                	or	a2,a2,a1
20401704:	acc42823          	sw	a2,-1328(s0)
20401708:	87c2                	mv	a5,a6
2040170a:	8fd9                	or	a5,a5,a4
2040170c:	acf42a23          	sw	a5,-1324(s0)
20401710:	ad042783          	lw	a5,-1328(s0)
20401714:	ad442803          	lw	a6,-1324(s0)
20401718:	e4f42023          	sw	a5,-448(s0)
2040171c:	e5042223          	sw	a6,-444(s0)
20401720:	b795                	j	20401684 <_ZN13LiquidCrystal5beginEhhh+0xf82>
    return;
20401722:	0001                	nop
    delayMicroseconds(4500);  // wait more than 4.1ms

    // second try
    command(LCD_FUNCTIONSET | _displayfunction);
20401724:	e0c42783          	lw	a5,-500(s0)
20401728:	0137c783          	lbu	a5,19(a5)
2040172c:	0207e793          	ori	a5,a5,32
20401730:	0ff7f793          	andi	a5,a5,255
20401734:	85be                	mv	a1,a5
20401736:	e0c42503          	lw	a0,-500(s0)
2040173a:	7a6000ef          	jal	ra,20401ee0 <_ZN13LiquidCrystal7commandEh>
2040173e:	09600793          	li	a5,150
20401742:	ecf42423          	sw	a5,-312(s0)
  if (usec == 0) {
20401746:	ec842783          	lw	a5,-312(s0)
2040174a:	2c078b63          	beqz	a5,20401a20 <_ZN13LiquidCrystal5beginEhhh+0x131e>
  rdmcycle(&current);
2040174e:	b80027f3          	csrr	a5,mcycleh
20401752:	b0002773          	csrr	a4,mcycle
20401756:	b80026f3          	csrr	a3,mcycleh
2040175a:	fed79ae3          	bne	a5,a3,2040174e <_ZN13LiquidCrystal5beginEhhh+0x104c>
2040175e:	ecf42223          	sw	a5,-316(s0)
20401762:	ece42023          	sw	a4,-320(s0)
20401766:	ead42e23          	sw	a3,-324(s0)
2040176a:	ec042783          	lw	a5,-320(s0)
2040176e:	bcf42c23          	sw	a5,-1064(s0)
20401772:	bc042e23          	sw	zero,-1060(s0)
20401776:	ec442783          	lw	a5,-316(s0)
2040177a:	bcf42823          	sw	a5,-1072(s0)
2040177e:	bc042a23          	sw	zero,-1068(s0)
20401782:	bd042783          	lw	a5,-1072(s0)
20401786:	00079793          	slli	a5,a5,0x0
2040178a:	bcf42623          	sw	a5,-1076(s0)
2040178e:	bc042423          	sw	zero,-1080(s0)
20401792:	bd842683          	lw	a3,-1064(s0)
20401796:	bdc42703          	lw	a4,-1060(s0)
2040179a:	8636                	mv	a2,a3
2040179c:	bc842783          	lw	a5,-1080(s0)
204017a0:	bcc42803          	lw	a6,-1076(s0)
204017a4:	85be                	mv	a1,a5
204017a6:	8e4d                	or	a2,a2,a1
204017a8:	bcc42023          	sw	a2,-1088(s0)
204017ac:	87c2                	mv	a5,a6
204017ae:	8fd9                	or	a5,a5,a4
204017b0:	bcf42223          	sw	a5,-1084(s0)
204017b4:	bc042783          	lw	a5,-1088(s0)
204017b8:	bc442803          	lw	a6,-1084(s0)
204017bc:	e2f42c23          	sw	a5,-456(s0)
204017c0:	e3042e23          	sw	a6,-452(s0)
  later = current + usec * (F_CPU/1000000);
204017c4:	ec842783          	lw	a5,-312(s0)
204017c8:	baf42c23          	sw	a5,-1096(s0)
204017cc:	ba042e23          	sw	zero,-1092(s0)
204017d0:	bb842683          	lw	a3,-1096(s0)
204017d4:	bbc42703          	lw	a4,-1092(s0)
204017d8:	87b6                	mv	a5,a3
204017da:	83f1                	srli	a5,a5,0x1c
204017dc:	863a                	mv	a2,a4
204017de:	0612                	slli	a2,a2,0x4
204017e0:	dec42623          	sw	a2,-532(s0)
204017e4:	dec42603          	lw	a2,-532(s0)
204017e8:	8fd1                	or	a5,a5,a2
204017ea:	def42623          	sw	a5,-532(s0)
204017ee:	87b6                	mv	a5,a3
204017f0:	0792                	slli	a5,a5,0x4
204017f2:	def42423          	sw	a5,-536(s0)
204017f6:	de842683          	lw	a3,-536(s0)
204017fa:	dec42703          	lw	a4,-532(s0)
204017fe:	e3842503          	lw	a0,-456(s0)
20401802:	e3c42583          	lw	a1,-452(s0)
20401806:	00a687b3          	add	a5,a3,a0
2040180a:	863e                	mv	a2,a5
2040180c:	00d63633          	sltu	a2,a2,a3
20401810:	00b70833          	add	a6,a4,a1
20401814:	01060733          	add	a4,a2,a6
20401818:	883a                	mv	a6,a4
2040181a:	eaf42823          	sw	a5,-336(s0)
2040181e:	eb042a23          	sw	a6,-332(s0)
  if (later > current) // usual case
20401822:	e3842683          	lw	a3,-456(s0)
20401826:	e3c42703          	lw	a4,-452(s0)
2040182a:	eb442783          	lw	a5,-332(s0)
2040182e:	863a                	mv	a2,a4
20401830:	00f66d63          	bltu	a2,a5,2040184a <_ZN13LiquidCrystal5beginEhhh+0x1148>
20401834:	eb442783          	lw	a5,-332(s0)
20401838:	863a                	mv	a2,a4
2040183a:	0ac79663          	bne	a5,a2,204018e6 <_ZN13LiquidCrystal5beginEhhh+0x11e4>
2040183e:	eb042783          	lw	a5,-336(s0)
20401842:	8736                	mv	a4,a3
20401844:	00f76363          	bltu	a4,a5,2040184a <_ZN13LiquidCrystal5beginEhhh+0x1148>
20401848:	a879                	j	204018e6 <_ZN13LiquidCrystal5beginEhhh+0x11e4>
      while (later > current) {
2040184a:	e3842783          	lw	a5,-456(s0)
2040184e:	e3c42803          	lw	a6,-452(s0)
20401852:	eb442703          	lw	a4,-332(s0)
20401856:	86c2                	mv	a3,a6
20401858:	00e6eb63          	bltu	a3,a4,2040186e <_ZN13LiquidCrystal5beginEhhh+0x116c>
2040185c:	eb442703          	lw	a4,-332(s0)
20401860:	86c2                	mv	a3,a6
20401862:	1cd71063          	bne	a4,a3,20401a22 <_ZN13LiquidCrystal5beginEhhh+0x1320>
20401866:	eb042703          	lw	a4,-336(s0)
2040186a:	1ae7fc63          	bleu	a4,a5,20401a22 <_ZN13LiquidCrystal5beginEhhh+0x1320>
	rdmcycle(&current);
2040186e:	b80026f3          	csrr	a3,mcycleh
20401872:	b0002773          	csrr	a4,mcycle
20401876:	b80027f3          	csrr	a5,mcycleh
2040187a:	fef69ae3          	bne	a3,a5,2040186e <_ZN13LiquidCrystal5beginEhhh+0x116c>
2040187e:	ead42623          	sw	a3,-340(s0)
20401882:	eae42423          	sw	a4,-344(s0)
20401886:	eaf42223          	sw	a5,-348(s0)
2040188a:	ea842783          	lw	a5,-344(s0)
2040188e:	baf42823          	sw	a5,-1104(s0)
20401892:	ba042a23          	sw	zero,-1100(s0)
20401896:	eac42783          	lw	a5,-340(s0)
2040189a:	baf42423          	sw	a5,-1112(s0)
2040189e:	ba042623          	sw	zero,-1108(s0)
204018a2:	ba842783          	lw	a5,-1112(s0)
204018a6:	00079793          	slli	a5,a5,0x0
204018aa:	baf42223          	sw	a5,-1116(s0)
204018ae:	ba042023          	sw	zero,-1120(s0)
204018b2:	bb042683          	lw	a3,-1104(s0)
204018b6:	bb442703          	lw	a4,-1100(s0)
204018ba:	8636                	mv	a2,a3
204018bc:	ba042783          	lw	a5,-1120(s0)
204018c0:	ba442803          	lw	a6,-1116(s0)
204018c4:	85be                	mv	a1,a5
204018c6:	8e4d                	or	a2,a2,a1
204018c8:	b8c42c23          	sw	a2,-1128(s0)
204018cc:	87c2                	mv	a5,a6
204018ce:	8fd9                	or	a5,a5,a4
204018d0:	b8f42e23          	sw	a5,-1124(s0)
204018d4:	b9842783          	lw	a5,-1128(s0)
204018d8:	b9c42803          	lw	a6,-1124(s0)
204018dc:	e2f42c23          	sw	a5,-456(s0)
204018e0:	e3042e23          	sw	a6,-452(s0)
204018e4:	b79d                	j	2040184a <_ZN13LiquidCrystal5beginEhhh+0x1148>
      while (later < current) {
204018e6:	e3842783          	lw	a5,-456(s0)
204018ea:	e3c42803          	lw	a6,-452(s0)
204018ee:	eb442703          	lw	a4,-332(s0)
204018f2:	86c2                	mv	a3,a6
204018f4:	00d76c63          	bltu	a4,a3,2040190c <_ZN13LiquidCrystal5beginEhhh+0x120a>
204018f8:	eb442703          	lw	a4,-332(s0)
204018fc:	86c2                	mv	a3,a6
204018fe:	08d71363          	bne	a4,a3,20401984 <_ZN13LiquidCrystal5beginEhhh+0x1282>
20401902:	eb042703          	lw	a4,-336(s0)
20401906:	00f76363          	bltu	a4,a5,2040190c <_ZN13LiquidCrystal5beginEhhh+0x120a>
2040190a:	a8ad                	j	20401984 <_ZN13LiquidCrystal5beginEhhh+0x1282>
	rdmcycle(&current);
2040190c:	b80026f3          	csrr	a3,mcycleh
20401910:	b0002773          	csrr	a4,mcycle
20401914:	b80027f3          	csrr	a5,mcycleh
20401918:	fef69ae3          	bne	a3,a5,2040190c <_ZN13LiquidCrystal5beginEhhh+0x120a>
2040191c:	ead42023          	sw	a3,-352(s0)
20401920:	e8e42e23          	sw	a4,-356(s0)
20401924:	e8f42c23          	sw	a5,-360(s0)
20401928:	e9c42783          	lw	a5,-356(s0)
2040192c:	b8f42823          	sw	a5,-1136(s0)
20401930:	b8042a23          	sw	zero,-1132(s0)
20401934:	ea042783          	lw	a5,-352(s0)
20401938:	b8f42423          	sw	a5,-1144(s0)
2040193c:	b8042623          	sw	zero,-1140(s0)
20401940:	b8842783          	lw	a5,-1144(s0)
20401944:	00079793          	slli	a5,a5,0x0
20401948:	b8f42223          	sw	a5,-1148(s0)
2040194c:	b8042023          	sw	zero,-1152(s0)
20401950:	b9042683          	lw	a3,-1136(s0)
20401954:	b9442703          	lw	a4,-1132(s0)
20401958:	8636                	mv	a2,a3
2040195a:	b8042783          	lw	a5,-1152(s0)
2040195e:	b8442803          	lw	a6,-1148(s0)
20401962:	85be                	mv	a1,a5
20401964:	8e4d                	or	a2,a2,a1
20401966:	b6c42c23          	sw	a2,-1160(s0)
2040196a:	87c2                	mv	a5,a6
2040196c:	8fd9                	or	a5,a5,a4
2040196e:	b6f42e23          	sw	a5,-1156(s0)
20401972:	b7842783          	lw	a5,-1160(s0)
20401976:	b7c42803          	lw	a6,-1156(s0)
2040197a:	e2f42c23          	sw	a5,-456(s0)
2040197e:	e3042e23          	sw	a6,-452(s0)
20401982:	b795                	j	204018e6 <_ZN13LiquidCrystal5beginEhhh+0x11e4>
      while (current < later) {
20401984:	e3842783          	lw	a5,-456(s0)
20401988:	e3c42803          	lw	a6,-452(s0)
2040198c:	eb442703          	lw	a4,-332(s0)
20401990:	86c2                	mv	a3,a6
20401992:	00e6eb63          	bltu	a3,a4,204019a8 <_ZN13LiquidCrystal5beginEhhh+0x12a6>
20401996:	eb442703          	lw	a4,-332(s0)
2040199a:	86c2                	mv	a3,a6
2040199c:	08d71363          	bne	a4,a3,20401a22 <_ZN13LiquidCrystal5beginEhhh+0x1320>
204019a0:	eb042703          	lw	a4,-336(s0)
204019a4:	06e7ff63          	bleu	a4,a5,20401a22 <_ZN13LiquidCrystal5beginEhhh+0x1320>
	rdmcycle(&current);
204019a8:	b80026f3          	csrr	a3,mcycleh
204019ac:	b0002773          	csrr	a4,mcycle
204019b0:	b80027f3          	csrr	a5,mcycleh
204019b4:	fef69ae3          	bne	a3,a5,204019a8 <_ZN13LiquidCrystal5beginEhhh+0x12a6>
204019b8:	e8d42a23          	sw	a3,-364(s0)
204019bc:	e8e42823          	sw	a4,-368(s0)
204019c0:	e8f42623          	sw	a5,-372(s0)
204019c4:	e9042783          	lw	a5,-368(s0)
204019c8:	b6f42823          	sw	a5,-1168(s0)
204019cc:	b6042a23          	sw	zero,-1164(s0)
204019d0:	e9442783          	lw	a5,-364(s0)
204019d4:	b6f42423          	sw	a5,-1176(s0)
204019d8:	b6042623          	sw	zero,-1172(s0)
204019dc:	b6842783          	lw	a5,-1176(s0)
204019e0:	00079793          	slli	a5,a5,0x0
204019e4:	b6f42223          	sw	a5,-1180(s0)
204019e8:	b6042023          	sw	zero,-1184(s0)
204019ec:	b7042683          	lw	a3,-1168(s0)
204019f0:	b7442703          	lw	a4,-1164(s0)
204019f4:	8636                	mv	a2,a3
204019f6:	b6042783          	lw	a5,-1184(s0)
204019fa:	b6442803          	lw	a6,-1180(s0)
204019fe:	85be                	mv	a1,a5
20401a00:	8e4d                	or	a2,a2,a1
20401a02:	b4c42c23          	sw	a2,-1192(s0)
20401a06:	87c2                	mv	a5,a6
20401a08:	8fd9                	or	a5,a5,a4
20401a0a:	b4f42e23          	sw	a5,-1188(s0)
20401a0e:	b5842783          	lw	a5,-1192(s0)
20401a12:	b5c42803          	lw	a6,-1188(s0)
20401a16:	e2f42c23          	sw	a5,-456(s0)
20401a1a:	e3042e23          	sw	a6,-452(s0)
20401a1e:	b79d                	j	20401984 <_ZN13LiquidCrystal5beginEhhh+0x1282>
    return;
20401a20:	0001                	nop
    delayMicroseconds(150);

    // third go
    command(LCD_FUNCTIONSET | _displayfunction);
20401a22:	e0c42783          	lw	a5,-500(s0)
20401a26:	0137c783          	lbu	a5,19(a5)
20401a2a:	0207e793          	ori	a5,a5,32
20401a2e:	0ff7f793          	andi	a5,a5,255
20401a32:	85be                	mv	a1,a5
20401a34:	e0c42503          	lw	a0,-500(s0)
20401a38:	2165                	jal	20401ee0 <_ZN13LiquidCrystal7commandEh>
  }

  // finally, set # lines, font size, etc.
  command(LCD_FUNCTIONSET | _displayfunction);  
20401a3a:	e0c42783          	lw	a5,-500(s0)
20401a3e:	0137c783          	lbu	a5,19(a5)
20401a42:	0207e793          	ori	a5,a5,32
20401a46:	0ff7f793          	andi	a5,a5,255
20401a4a:	85be                	mv	a1,a5
20401a4c:	e0c42503          	lw	a0,-500(s0)
20401a50:	2941                	jal	20401ee0 <_ZN13LiquidCrystal7commandEh>

  // turn the display on with no cursor or blinking default
  _displaycontrol = LCD_DISPLAYON | LCD_CURSOROFF | LCD_BLINKOFF;  
20401a52:	e0c42783          	lw	a5,-500(s0)
20401a56:	4711                	li	a4,4
20401a58:	00e78a23          	sb	a4,20(a5)
  display();
20401a5c:	e0c42503          	lw	a0,-500(s0)
20401a60:	2925                	jal	20401e98 <_ZN13LiquidCrystal7displayEv>

  // clear it off
  clear();
20401a62:	e0c42503          	lw	a0,-500(s0)
20401a66:	20c9                	jal	20401b28 <_ZN13LiquidCrystal5clearEv>

  // Initialize to default text direction (for romance languages)
  _displaymode = LCD_ENTRYLEFT | LCD_ENTRYSHIFTDECREMENT;
20401a68:	e0c42783          	lw	a5,-500(s0)
20401a6c:	4709                	li	a4,2
20401a6e:	00e78aa3          	sb	a4,21(a5)
  // set the entry mode
  command(LCD_ENTRYMODESET | _displaymode);
20401a72:	e0c42783          	lw	a5,-500(s0)
20401a76:	0157c783          	lbu	a5,21(a5)
20401a7a:	0047e793          	ori	a5,a5,4
20401a7e:	0ff7f793          	andi	a5,a5,255
20401a82:	85be                	mv	a1,a5
20401a84:	e0c42503          	lw	a0,-500(s0)
20401a88:	29a1                	jal	20401ee0 <_ZN13LiquidCrystal7commandEh>

}
20401a8a:	0001                	nop
20401a8c:	838a                	mv	t2,sp
20401a8e:	52c12083          	lw	ra,1324(sp)
20401a92:	52812403          	lw	s0,1320(sp)
20401a96:	52412903          	lw	s2,1316(sp)
20401a9a:	52012983          	lw	s3,1312(sp)
20401a9e:	51c12a03          	lw	s4,1308(sp)
20401aa2:	51812a83          	lw	s5,1304(sp)
20401aa6:	51412b03          	lw	s6,1300(sp)
20401aaa:	51012b83          	lw	s7,1296(sp)
20401aae:	50c12c03          	lw	s8,1292(sp)
20401ab2:	50812c83          	lw	s9,1288(sp)
20401ab6:	50412d03          	lw	s10,1284(sp)
20401aba:	50012d83          	lw	s11,1280(sp)
20401abe:	53010113          	addi	sp,sp,1328
20401ac2:	8082                	ret

20401ac4 <_ZN13LiquidCrystal13setRowOffsetsEiiii>:

void LiquidCrystal::setRowOffsets(int row0, int row1, int row2, int row3)
{
20401ac4:	7179                	addi	sp,sp,-48
20401ac6:	d622                	sw	s0,44(sp)
20401ac8:	1800                	addi	s0,sp,48
20401aca:	fea42623          	sw	a0,-20(s0)
20401ace:	feb42423          	sw	a1,-24(s0)
20401ad2:	fec42223          	sw	a2,-28(s0)
20401ad6:	fed42023          	sw	a3,-32(s0)
20401ada:	fce42e23          	sw	a4,-36(s0)
  _row_offsets[0] = row0;
20401ade:	fe842783          	lw	a5,-24(s0)
20401ae2:	0ff7f713          	andi	a4,a5,255
20401ae6:	fec42783          	lw	a5,-20(s0)
20401aea:	00e78c23          	sb	a4,24(a5)
  _row_offsets[1] = row1;
20401aee:	fe442783          	lw	a5,-28(s0)
20401af2:	0ff7f713          	andi	a4,a5,255
20401af6:	fec42783          	lw	a5,-20(s0)
20401afa:	00e78ca3          	sb	a4,25(a5)
  _row_offsets[2] = row2;
20401afe:	fe042783          	lw	a5,-32(s0)
20401b02:	0ff7f713          	andi	a4,a5,255
20401b06:	fec42783          	lw	a5,-20(s0)
20401b0a:	00e78d23          	sb	a4,26(a5)
  _row_offsets[3] = row3;
20401b0e:	fdc42783          	lw	a5,-36(s0)
20401b12:	0ff7f713          	andi	a4,a5,255
20401b16:	fec42783          	lw	a5,-20(s0)
20401b1a:	00e78da3          	sb	a4,27(a5)
}
20401b1e:	0001                	nop
20401b20:	838a                	mv	t2,sp
20401b22:	5432                	lw	s0,44(sp)
20401b24:	6145                	addi	sp,sp,48
20401b26:	8082                	ret

20401b28 <_ZN13LiquidCrystal5clearEv>:

/********** high level commands, for the user! */
void LiquidCrystal::clear()
{
20401b28:	7151                	addi	sp,sp,-240
20401b2a:	d786                	sw	ra,236(sp)
20401b2c:	d5a2                	sw	s0,232(sp)
20401b2e:	d3ca                	sw	s2,228(sp)
20401b30:	d1ce                	sw	s3,224(sp)
20401b32:	cfd2                	sw	s4,220(sp)
20401b34:	cdd6                	sw	s5,216(sp)
20401b36:	cbda                	sw	s6,212(sp)
20401b38:	c9de                	sw	s7,208(sp)
20401b3a:	c7e2                	sw	s8,204(sp)
20401b3c:	c5e6                	sw	s9,200(sp)
20401b3e:	c3ea                	sw	s10,196(sp)
20401b40:	c1ee                	sw	s11,192(sp)
20401b42:	1980                	addi	s0,sp,240
20401b44:	f6a42e23          	sw	a0,-132(s0)
  command(LCD_CLEARDISPLAY);  // clear display, set cursor position to zero
20401b48:	4585                	li	a1,1
20401b4a:	f7c42503          	lw	a0,-132(s0)
20401b4e:	2e49                	jal	20401ee0 <_ZN13LiquidCrystal7commandEh>
20401b50:	7d000793          	li	a5,2000
20401b54:	fcf42623          	sw	a5,-52(s0)
  if (usec == 0) {
20401b58:	fcc42783          	lw	a5,-52(s0)
20401b5c:	e399                	bnez	a5,20401b62 <_ZN13LiquidCrystal5clearEv+0x3a>
    return;
20401b5e:	0001                	nop
  delayMicroseconds(2000);  // this command takes a long time!
}
20401b60:	a479                	j	20401dee <_ZN13LiquidCrystal5clearEv+0x2c6>
  rdmcycle(&current);
20401b62:	b80027f3          	csrr	a5,mcycleh
20401b66:	b0002773          	csrr	a4,mcycle
20401b6a:	b80026f3          	csrr	a3,mcycleh
20401b6e:	fed79ae3          	bne	a5,a3,20401b62 <_ZN13LiquidCrystal5clearEv+0x3a>
20401b72:	fcf42423          	sw	a5,-56(s0)
20401b76:	fce42223          	sw	a4,-60(s0)
20401b7a:	fcd42023          	sw	a3,-64(s0)
20401b7e:	fc442783          	lw	a5,-60(s0)
20401b82:	8c3e                	mv	s8,a5
20401b84:	4c81                	li	s9,0
20401b86:	fc842783          	lw	a5,-56(s0)
20401b8a:	f6f42823          	sw	a5,-144(s0)
20401b8e:	f6042a23          	sw	zero,-140(s0)
20401b92:	f7042783          	lw	a5,-144(s0)
20401b96:	00079a93          	slli	s5,a5,0x0
20401b9a:	4a01                	li	s4,0
20401b9c:	014c6d33          	or	s10,s8,s4
20401ba0:	015cedb3          	or	s11,s9,s5
20401ba4:	f9a42423          	sw	s10,-120(s0)
20401ba8:	f9b42623          	sw	s11,-116(s0)
  later = current + usec * (F_CPU/1000000);
20401bac:	fcc42783          	lw	a5,-52(s0)
20401bb0:	8b3e                	mv	s6,a5
20401bb2:	4b81                	li	s7,0
20401bb4:	01cb5793          	srli	a5,s6,0x1c
20401bb8:	004b9993          	slli	s3,s7,0x4
20401bbc:	0137e9b3          	or	s3,a5,s3
20401bc0:	004b1913          	slli	s2,s6,0x4
20401bc4:	87ca                	mv	a5,s2
20401bc6:	884e                	mv	a6,s3
20401bc8:	f8842583          	lw	a1,-120(s0)
20401bcc:	f8c42603          	lw	a2,-116(s0)
20401bd0:	00b786b3          	add	a3,a5,a1
20401bd4:	8536                	mv	a0,a3
20401bd6:	00f53533          	sltu	a0,a0,a5
20401bda:	00c80733          	add	a4,a6,a2
20401bde:	00e507b3          	add	a5,a0,a4
20401be2:	873e                	mv	a4,a5
20401be4:	fad42c23          	sw	a3,-72(s0)
20401be8:	fae42e23          	sw	a4,-68(s0)
  if (later > current) // usual case
20401bec:	f8842683          	lw	a3,-120(s0)
20401bf0:	f8c42703          	lw	a4,-116(s0)
20401bf4:	fbc42603          	lw	a2,-68(s0)
20401bf8:	87ba                	mv	a5,a4
20401bfa:	00c7ed63          	bltu	a5,a2,20401c14 <_ZN13LiquidCrystal5clearEv+0xec>
20401bfe:	fbc42603          	lw	a2,-68(s0)
20401c02:	87ba                	mv	a5,a4
20401c04:	0af61763          	bne	a2,a5,20401cb2 <_ZN13LiquidCrystal5clearEv+0x18a>
20401c08:	fb842783          	lw	a5,-72(s0)
20401c0c:	8736                	mv	a4,a3
20401c0e:	00f76363          	bltu	a4,a5,20401c14 <_ZN13LiquidCrystal5clearEv+0xec>
20401c12:	a045                	j	20401cb2 <_ZN13LiquidCrystal5clearEv+0x18a>
      while (later > current) {
20401c14:	f8842783          	lw	a5,-120(s0)
20401c18:	f8c42803          	lw	a6,-116(s0)
20401c1c:	fbc42703          	lw	a4,-68(s0)
20401c20:	86c2                	mv	a3,a6
20401c22:	00e6ec63          	bltu	a3,a4,20401c3a <_ZN13LiquidCrystal5clearEv+0x112>
20401c26:	fbc42703          	lw	a4,-68(s0)
20401c2a:	86c2                	mv	a3,a6
20401c2c:	1cd71163          	bne	a4,a3,20401dee <_ZN13LiquidCrystal5clearEv+0x2c6>
20401c30:	fb842703          	lw	a4,-72(s0)
20401c34:	00e7e363          	bltu	a5,a4,20401c3a <_ZN13LiquidCrystal5clearEv+0x112>
20401c38:	aa5d                	j	20401dee <_ZN13LiquidCrystal5clearEv+0x2c6>
	rdmcycle(&current);
20401c3a:	b80026f3          	csrr	a3,mcycleh
20401c3e:	b0002773          	csrr	a4,mcycle
20401c42:	b80027f3          	csrr	a5,mcycleh
20401c46:	fef69ae3          	bne	a3,a5,20401c3a <_ZN13LiquidCrystal5clearEv+0x112>
20401c4a:	fad42a23          	sw	a3,-76(s0)
20401c4e:	fae42823          	sw	a4,-80(s0)
20401c52:	faf42623          	sw	a5,-84(s0)
20401c56:	fb042783          	lw	a5,-80(s0)
20401c5a:	f6f42423          	sw	a5,-152(s0)
20401c5e:	f6042623          	sw	zero,-148(s0)
20401c62:	fb442783          	lw	a5,-76(s0)
20401c66:	f6f42023          	sw	a5,-160(s0)
20401c6a:	f6042223          	sw	zero,-156(s0)
20401c6e:	f6042783          	lw	a5,-160(s0)
20401c72:	00079793          	slli	a5,a5,0x0
20401c76:	f4f42e23          	sw	a5,-164(s0)
20401c7a:	f4042c23          	sw	zero,-168(s0)
20401c7e:	f6842683          	lw	a3,-152(s0)
20401c82:	f6c42703          	lw	a4,-148(s0)
20401c86:	8636                	mv	a2,a3
20401c88:	f5842783          	lw	a5,-168(s0)
20401c8c:	f5c42803          	lw	a6,-164(s0)
20401c90:	85be                	mv	a1,a5
20401c92:	8e4d                	or	a2,a2,a1
20401c94:	f4c42823          	sw	a2,-176(s0)
20401c98:	87c2                	mv	a5,a6
20401c9a:	8fd9                	or	a5,a5,a4
20401c9c:	f4f42a23          	sw	a5,-172(s0)
20401ca0:	f5042783          	lw	a5,-176(s0)
20401ca4:	f5442803          	lw	a6,-172(s0)
20401ca8:	f8f42423          	sw	a5,-120(s0)
20401cac:	f9042623          	sw	a6,-116(s0)
20401cb0:	b795                	j	20401c14 <_ZN13LiquidCrystal5clearEv+0xec>
      while (later < current) {
20401cb2:	f8842783          	lw	a5,-120(s0)
20401cb6:	f8c42803          	lw	a6,-116(s0)
20401cba:	fbc42703          	lw	a4,-68(s0)
20401cbe:	86c2                	mv	a3,a6
20401cc0:	00d76c63          	bltu	a4,a3,20401cd8 <_ZN13LiquidCrystal5clearEv+0x1b0>
20401cc4:	fbc42703          	lw	a4,-68(s0)
20401cc8:	86c2                	mv	a3,a6
20401cca:	08d71363          	bne	a4,a3,20401d50 <_ZN13LiquidCrystal5clearEv+0x228>
20401cce:	fb842703          	lw	a4,-72(s0)
20401cd2:	00f76363          	bltu	a4,a5,20401cd8 <_ZN13LiquidCrystal5clearEv+0x1b0>
20401cd6:	a8ad                	j	20401d50 <_ZN13LiquidCrystal5clearEv+0x228>
	rdmcycle(&current);
20401cd8:	b80026f3          	csrr	a3,mcycleh
20401cdc:	b0002773          	csrr	a4,mcycle
20401ce0:	b80027f3          	csrr	a5,mcycleh
20401ce4:	fef69ae3          	bne	a3,a5,20401cd8 <_ZN13LiquidCrystal5clearEv+0x1b0>
20401ce8:	fad42423          	sw	a3,-88(s0)
20401cec:	fae42223          	sw	a4,-92(s0)
20401cf0:	faf42023          	sw	a5,-96(s0)
20401cf4:	fa442783          	lw	a5,-92(s0)
20401cf8:	f4f42423          	sw	a5,-184(s0)
20401cfc:	f4042623          	sw	zero,-180(s0)
20401d00:	fa842783          	lw	a5,-88(s0)
20401d04:	f4f42023          	sw	a5,-192(s0)
20401d08:	f4042223          	sw	zero,-188(s0)
20401d0c:	f4042783          	lw	a5,-192(s0)
20401d10:	00079793          	slli	a5,a5,0x0
20401d14:	f2f42e23          	sw	a5,-196(s0)
20401d18:	f2042c23          	sw	zero,-200(s0)
20401d1c:	f4842683          	lw	a3,-184(s0)
20401d20:	f4c42703          	lw	a4,-180(s0)
20401d24:	8636                	mv	a2,a3
20401d26:	f3842783          	lw	a5,-200(s0)
20401d2a:	f3c42803          	lw	a6,-196(s0)
20401d2e:	85be                	mv	a1,a5
20401d30:	8e4d                	or	a2,a2,a1
20401d32:	f2c42823          	sw	a2,-208(s0)
20401d36:	87c2                	mv	a5,a6
20401d38:	8fd9                	or	a5,a5,a4
20401d3a:	f2f42a23          	sw	a5,-204(s0)
20401d3e:	f3042783          	lw	a5,-208(s0)
20401d42:	f3442803          	lw	a6,-204(s0)
20401d46:	f8f42423          	sw	a5,-120(s0)
20401d4a:	f9042623          	sw	a6,-116(s0)
20401d4e:	b795                	j	20401cb2 <_ZN13LiquidCrystal5clearEv+0x18a>
      while (current < later) {
20401d50:	f8842783          	lw	a5,-120(s0)
20401d54:	f8c42803          	lw	a6,-116(s0)
20401d58:	fbc42703          	lw	a4,-68(s0)
20401d5c:	86c2                	mv	a3,a6
20401d5e:	00e6ec63          	bltu	a3,a4,20401d76 <_ZN13LiquidCrystal5clearEv+0x24e>
20401d62:	fbc42703          	lw	a4,-68(s0)
20401d66:	86c2                	mv	a3,a6
20401d68:	08d71363          	bne	a4,a3,20401dee <_ZN13LiquidCrystal5clearEv+0x2c6>
20401d6c:	fb842703          	lw	a4,-72(s0)
20401d70:	00e7e363          	bltu	a5,a4,20401d76 <_ZN13LiquidCrystal5clearEv+0x24e>
20401d74:	a8ad                	j	20401dee <_ZN13LiquidCrystal5clearEv+0x2c6>
	rdmcycle(&current);
20401d76:	b80026f3          	csrr	a3,mcycleh
20401d7a:	b0002773          	csrr	a4,mcycle
20401d7e:	b80027f3          	csrr	a5,mcycleh
20401d82:	fef69ae3          	bne	a3,a5,20401d76 <_ZN13LiquidCrystal5clearEv+0x24e>
20401d86:	f8d42e23          	sw	a3,-100(s0)
20401d8a:	f8e42c23          	sw	a4,-104(s0)
20401d8e:	f8f42a23          	sw	a5,-108(s0)
20401d92:	f9842783          	lw	a5,-104(s0)
20401d96:	f2f42423          	sw	a5,-216(s0)
20401d9a:	f2042623          	sw	zero,-212(s0)
20401d9e:	f9c42783          	lw	a5,-100(s0)
20401da2:	f2f42023          	sw	a5,-224(s0)
20401da6:	f2042223          	sw	zero,-220(s0)
20401daa:	f2042783          	lw	a5,-224(s0)
20401dae:	00079793          	slli	a5,a5,0x0
20401db2:	f0f42e23          	sw	a5,-228(s0)
20401db6:	f0042c23          	sw	zero,-232(s0)
20401dba:	f2842683          	lw	a3,-216(s0)
20401dbe:	f2c42703          	lw	a4,-212(s0)
20401dc2:	8636                	mv	a2,a3
20401dc4:	f1842783          	lw	a5,-232(s0)
20401dc8:	f1c42803          	lw	a6,-228(s0)
20401dcc:	85be                	mv	a1,a5
20401dce:	8e4d                	or	a2,a2,a1
20401dd0:	f0c42823          	sw	a2,-240(s0)
20401dd4:	87c2                	mv	a5,a6
20401dd6:	8fd9                	or	a5,a5,a4
20401dd8:	f0f42a23          	sw	a5,-236(s0)
20401ddc:	f1042783          	lw	a5,-240(s0)
20401de0:	f1442803          	lw	a6,-236(s0)
20401de4:	f8f42423          	sw	a5,-120(s0)
20401de8:	f9042623          	sw	a6,-116(s0)
20401dec:	b795                	j	20401d50 <_ZN13LiquidCrystal5clearEv+0x228>
20401dee:	0001                	nop
20401df0:	838a                	mv	t2,sp
20401df2:	50be                	lw	ra,236(sp)
20401df4:	542e                	lw	s0,232(sp)
20401df6:	591e                	lw	s2,228(sp)
20401df8:	598e                	lw	s3,224(sp)
20401dfa:	4a7e                	lw	s4,220(sp)
20401dfc:	4aee                	lw	s5,216(sp)
20401dfe:	4b5e                	lw	s6,212(sp)
20401e00:	4bce                	lw	s7,208(sp)
20401e02:	4c3e                	lw	s8,204(sp)
20401e04:	4cae                	lw	s9,200(sp)
20401e06:	4d1e                	lw	s10,196(sp)
20401e08:	4d8e                	lw	s11,192(sp)
20401e0a:	616d                	addi	sp,sp,240
20401e0c:	8082                	ret

20401e0e <_ZN13LiquidCrystal9setCursorEhh>:
  command(LCD_RETURNHOME);  // set cursor position to zero
  delayMicroseconds(2000);  // this command takes a long time!
}

void LiquidCrystal::setCursor(uint8_t col, uint8_t row)
{
20401e0e:	7179                	addi	sp,sp,-48
20401e10:	d606                	sw	ra,44(sp)
20401e12:	d422                	sw	s0,40(sp)
20401e14:	1800                	addi	s0,sp,48
20401e16:	fca42e23          	sw	a0,-36(s0)
20401e1a:	87ae                	mv	a5,a1
20401e1c:	8732                	mv	a4,a2
20401e1e:	fcf40da3          	sb	a5,-37(s0)
20401e22:	87ba                	mv	a5,a4
20401e24:	fcf40d23          	sb	a5,-38(s0)
  const size_t max_lines = sizeof(_row_offsets) / sizeof(*_row_offsets);
20401e28:	4791                	li	a5,4
20401e2a:	fef42623          	sw	a5,-20(s0)
  if ( row >= max_lines ) {
20401e2e:	fda44703          	lbu	a4,-38(s0)
20401e32:	478d                	li	a5,3
20401e34:	00e7f563          	bleu	a4,a5,20401e3e <_ZN13LiquidCrystal9setCursorEhh+0x30>
    row = max_lines - 1;    // we count rows starting w/0
20401e38:	478d                	li	a5,3
20401e3a:	fcf40d23          	sb	a5,-38(s0)
  }
  if ( row >= _numlines ) {
20401e3e:	fdc42783          	lw	a5,-36(s0)
20401e42:	0177c783          	lbu	a5,23(a5)
20401e46:	fda44703          	lbu	a4,-38(s0)
20401e4a:	00f76963          	bltu	a4,a5,20401e5c <_ZN13LiquidCrystal9setCursorEhh+0x4e>
    row = _numlines - 1;    // we count rows starting w/0
20401e4e:	fdc42783          	lw	a5,-36(s0)
20401e52:	0177c783          	lbu	a5,23(a5)
20401e56:	17fd                	addi	a5,a5,-1
20401e58:	fcf40d23          	sb	a5,-38(s0)
  }
  
  command(LCD_SETDDRAMADDR | (col + _row_offsets[row]));
20401e5c:	fda44783          	lbu	a5,-38(s0)
20401e60:	fdc42703          	lw	a4,-36(s0)
20401e64:	97ba                	add	a5,a5,a4
20401e66:	0187c703          	lbu	a4,24(a5)
20401e6a:	fdb44783          	lbu	a5,-37(s0)
20401e6e:	97ba                	add	a5,a5,a4
20401e70:	0ff7f793          	andi	a5,a5,255
20401e74:	07e2                	slli	a5,a5,0x18
20401e76:	87e1                	srai	a5,a5,0x18
20401e78:	f807e793          	ori	a5,a5,-128
20401e7c:	07e2                	slli	a5,a5,0x18
20401e7e:	87e1                	srai	a5,a5,0x18
20401e80:	0ff7f793          	andi	a5,a5,255
20401e84:	85be                	mv	a1,a5
20401e86:	fdc42503          	lw	a0,-36(s0)
20401e8a:	2899                	jal	20401ee0 <_ZN13LiquidCrystal7commandEh>
}
20401e8c:	0001                	nop
20401e8e:	838a                	mv	t2,sp
20401e90:	50b2                	lw	ra,44(sp)
20401e92:	5422                	lw	s0,40(sp)
20401e94:	6145                	addi	sp,sp,48
20401e96:	8082                	ret

20401e98 <_ZN13LiquidCrystal7displayEv>:
// Turn the display on/off (quickly)
void LiquidCrystal::noDisplay() {
  _displaycontrol &= ~LCD_DISPLAYON;
  command(LCD_DISPLAYCONTROL | _displaycontrol);
}
void LiquidCrystal::display() {
20401e98:	1101                	addi	sp,sp,-32
20401e9a:	ce06                	sw	ra,28(sp)
20401e9c:	cc22                	sw	s0,24(sp)
20401e9e:	1000                	addi	s0,sp,32
20401ea0:	fea42623          	sw	a0,-20(s0)
  _displaycontrol |= LCD_DISPLAYON;
20401ea4:	fec42783          	lw	a5,-20(s0)
20401ea8:	0147c783          	lbu	a5,20(a5)
20401eac:	0047e793          	ori	a5,a5,4
20401eb0:	0ff7f713          	andi	a4,a5,255
20401eb4:	fec42783          	lw	a5,-20(s0)
20401eb8:	00e78a23          	sb	a4,20(a5)
  command(LCD_DISPLAYCONTROL | _displaycontrol);
20401ebc:	fec42783          	lw	a5,-20(s0)
20401ec0:	0147c783          	lbu	a5,20(a5)
20401ec4:	0087e793          	ori	a5,a5,8
20401ec8:	0ff7f793          	andi	a5,a5,255
20401ecc:	85be                	mv	a1,a5
20401ece:	fec42503          	lw	a0,-20(s0)
20401ed2:	2039                	jal	20401ee0 <_ZN13LiquidCrystal7commandEh>
}
20401ed4:	0001                	nop
20401ed6:	838a                	mv	t2,sp
20401ed8:	40f2                	lw	ra,28(sp)
20401eda:	4462                	lw	s0,24(sp)
20401edc:	6105                	addi	sp,sp,32
20401ede:	8082                	ret

20401ee0 <_ZN13LiquidCrystal7commandEh>:
  }
}

/*********** mid level commands, for sending data/cmds */

inline void LiquidCrystal::command(uint8_t value) {
20401ee0:	1101                	addi	sp,sp,-32
20401ee2:	ce06                	sw	ra,28(sp)
20401ee4:	cc22                	sw	s0,24(sp)
20401ee6:	1000                	addi	s0,sp,32
20401ee8:	fea42623          	sw	a0,-20(s0)
20401eec:	87ae                	mv	a5,a1
20401eee:	fef405a3          	sb	a5,-21(s0)
  send(value, LOW);
20401ef2:	feb44783          	lbu	a5,-21(s0)
20401ef6:	4601                	li	a2,0
20401ef8:	85be                	mv	a1,a5
20401efa:	fec42503          	lw	a0,-20(s0)
20401efe:	2835                	jal	20401f3a <_ZN13LiquidCrystal4sendEhh>
}
20401f00:	0001                	nop
20401f02:	838a                	mv	t2,sp
20401f04:	40f2                	lw	ra,28(sp)
20401f06:	4462                	lw	s0,24(sp)
20401f08:	6105                	addi	sp,sp,32
20401f0a:	8082                	ret

20401f0c <_ZN13LiquidCrystal5writeEh>:

inline size_t LiquidCrystal::write(uint8_t value) {
20401f0c:	1101                	addi	sp,sp,-32
20401f0e:	ce06                	sw	ra,28(sp)
20401f10:	cc22                	sw	s0,24(sp)
20401f12:	1000                	addi	s0,sp,32
20401f14:	fea42623          	sw	a0,-20(s0)
20401f18:	87ae                	mv	a5,a1
20401f1a:	fef405a3          	sb	a5,-21(s0)
  send(value, HIGH);
20401f1e:	feb44783          	lbu	a5,-21(s0)
20401f22:	4605                	li	a2,1
20401f24:	85be                	mv	a1,a5
20401f26:	fec42503          	lw	a0,-20(s0)
20401f2a:	2801                	jal	20401f3a <_ZN13LiquidCrystal4sendEhh>
  return 1; // assume sucess
20401f2c:	4785                	li	a5,1
}
20401f2e:	853e                	mv	a0,a5
20401f30:	838a                	mv	t2,sp
20401f32:	40f2                	lw	ra,28(sp)
20401f34:	4462                	lw	s0,24(sp)
20401f36:	6105                	addi	sp,sp,32
20401f38:	8082                	ret

20401f3a <_ZN13LiquidCrystal4sendEhh>:

/************ low level data pushing commands **********/

// write either command or data, with automatic 4/8-bit selection
void LiquidCrystal::send(uint8_t value, uint8_t mode) {
20401f3a:	1101                	addi	sp,sp,-32
20401f3c:	ce06                	sw	ra,28(sp)
20401f3e:	cc22                	sw	s0,24(sp)
20401f40:	1000                	addi	s0,sp,32
20401f42:	fea42623          	sw	a0,-20(s0)
20401f46:	87ae                	mv	a5,a1
20401f48:	8732                	mv	a4,a2
20401f4a:	fef405a3          	sb	a5,-21(s0)
20401f4e:	87ba                	mv	a5,a4
20401f50:	fef40523          	sb	a5,-22(s0)
  digitalWrite(_rs_pin, mode);
20401f54:	fec42783          	lw	a5,-20(s0)
20401f58:	0087c783          	lbu	a5,8(a5)
20401f5c:	873e                	mv	a4,a5
20401f5e:	fea44783          	lbu	a5,-22(s0)
20401f62:	85be                	mv	a1,a5
20401f64:	853a                	mv	a0,a4
20401f66:	3e1000ef          	jal	ra,20402b46 <digitalWrite>

  // if there is a RW pin indicated, set it low to Write
  if (_rw_pin != 255) { 
20401f6a:	fec42783          	lw	a5,-20(s0)
20401f6e:	0097c703          	lbu	a4,9(a5)
20401f72:	0ff00793          	li	a5,255
20401f76:	00f70a63          	beq	a4,a5,20401f8a <_ZN13LiquidCrystal4sendEhh+0x50>
    digitalWrite(_rw_pin, LOW);
20401f7a:	fec42783          	lw	a5,-20(s0)
20401f7e:	0097c783          	lbu	a5,9(a5)
20401f82:	4581                	li	a1,0
20401f84:	853e                	mv	a0,a5
20401f86:	3c1000ef          	jal	ra,20402b46 <digitalWrite>
  }
  
  if (_displayfunction & LCD_8BITMODE) {
20401f8a:	fec42783          	lw	a5,-20(s0)
20401f8e:	0137c783          	lbu	a5,19(a5)
20401f92:	8bc1                	andi	a5,a5,16
20401f94:	cb89                	beqz	a5,20401fa6 <_ZN13LiquidCrystal4sendEhh+0x6c>
    write8bits(value); 
20401f96:	feb44783          	lbu	a5,-21(s0)
20401f9a:	85be                	mv	a1,a5
20401f9c:	fec42503          	lw	a0,-20(s0)
20401fa0:	1a9000ef          	jal	ra,20402948 <_ZN13LiquidCrystal10write8bitsEh>
  } else {
    write4bits(value>>4);
    write4bits(value);
  }
}
20401fa4:	a015                	j	20401fc8 <_ZN13LiquidCrystal4sendEhh+0x8e>
    write4bits(value>>4);
20401fa6:	feb44783          	lbu	a5,-21(s0)
20401faa:	8791                	srai	a5,a5,0x4
20401fac:	0ff7f793          	andi	a5,a5,255
20401fb0:	85be                	mv	a1,a5
20401fb2:	fec42503          	lw	a0,-20(s0)
20401fb6:	12f000ef          	jal	ra,204028e4 <_ZN13LiquidCrystal10write4bitsEh>
    write4bits(value);
20401fba:	feb44783          	lbu	a5,-21(s0)
20401fbe:	85be                	mv	a1,a5
20401fc0:	fec42503          	lw	a0,-20(s0)
20401fc4:	121000ef          	jal	ra,204028e4 <_ZN13LiquidCrystal10write4bitsEh>
}
20401fc8:	0001                	nop
20401fca:	838a                	mv	t2,sp
20401fcc:	40f2                	lw	ra,28(sp)
20401fce:	4462                	lw	s0,24(sp)
20401fd0:	6105                	addi	sp,sp,32
20401fd2:	8082                	ret

20401fd4 <_ZN13LiquidCrystal11pulseEnableEv>:

void LiquidCrystal::pulseEnable(void) {
20401fd4:	d6010113          	addi	sp,sp,-672
20401fd8:	28112e23          	sw	ra,668(sp)
20401fdc:	28812c23          	sw	s0,664(sp)
20401fe0:	29212a23          	sw	s2,660(sp)
20401fe4:	29312823          	sw	s3,656(sp)
20401fe8:	29412623          	sw	s4,652(sp)
20401fec:	29512423          	sw	s5,648(sp)
20401ff0:	29612223          	sw	s6,644(sp)
20401ff4:	29712023          	sw	s7,640(sp)
20401ff8:	27812e23          	sw	s8,636(sp)
20401ffc:	27912c23          	sw	s9,632(sp)
20402000:	27a12a23          	sw	s10,628(sp)
20402004:	27b12823          	sw	s11,624(sp)
20402008:	1500                	addi	s0,sp,672
2040200a:	eea42623          	sw	a0,-276(s0)
  digitalWrite(_enable_pin, LOW);
2040200e:	eec42783          	lw	a5,-276(s0)
20402012:	00a7c783          	lbu	a5,10(a5)
20402016:	4581                	li	a1,0
20402018:	853e                	mv	a0,a5
2040201a:	32d000ef          	jal	ra,20402b46 <digitalWrite>
2040201e:	4785                	li	a5,1
20402020:	f4f42823          	sw	a5,-176(s0)
  if (usec == 0) {
20402024:	f5042783          	lw	a5,-176(s0)
20402028:	28078963          	beqz	a5,204022ba <_ZN13LiquidCrystal11pulseEnableEv+0x2e6>
  rdmcycle(&current);
2040202c:	b80027f3          	csrr	a5,mcycleh
20402030:	b0002773          	csrr	a4,mcycle
20402034:	b80026f3          	csrr	a3,mcycleh
20402038:	fed79ae3          	bne	a5,a3,2040202c <_ZN13LiquidCrystal11pulseEnableEv+0x58>
2040203c:	f4f42623          	sw	a5,-180(s0)
20402040:	f4e42423          	sw	a4,-184(s0)
20402044:	f4d42223          	sw	a3,-188(s0)
20402048:	f4842783          	lw	a5,-184(s0)
2040204c:	8c3e                	mv	s8,a5
2040204e:	4c81                	li	s9,0
20402050:	f4c42783          	lw	a5,-180(s0)
20402054:	dcf42023          	sw	a5,-576(s0)
20402058:	dc042223          	sw	zero,-572(s0)
2040205c:	dc042783          	lw	a5,-576(s0)
20402060:	00079993          	slli	s3,a5,0x0
20402064:	4901                	li	s2,0
20402066:	012c6d33          	or	s10,s8,s2
2040206a:	013cedb3          	or	s11,s9,s3
2040206e:	f1a42423          	sw	s10,-248(s0)
20402072:	f1b42623          	sw	s11,-244(s0)
  later = current + usec * (F_CPU/1000000);
20402076:	f5042783          	lw	a5,-176(s0)
2040207a:	8b3e                	mv	s6,a5
2040207c:	4b81                	li	s7,0
2040207e:	01cb5793          	srli	a5,s6,0x1c
20402082:	004b9a93          	slli	s5,s7,0x4
20402086:	0157eab3          	or	s5,a5,s5
2040208a:	004b1a13          	slli	s4,s6,0x4
2040208e:	87d2                	mv	a5,s4
20402090:	8856                	mv	a6,s5
20402092:	f0842683          	lw	a3,-248(s0)
20402096:	f0c42703          	lw	a4,-244(s0)
2040209a:	00d78533          	add	a0,a5,a3
2040209e:	862a                	mv	a2,a0
204020a0:	00f63633          	sltu	a2,a2,a5
204020a4:	00e805b3          	add	a1,a6,a4
204020a8:	00b607b3          	add	a5,a2,a1
204020ac:	85be                	mv	a1,a5
204020ae:	f2a42c23          	sw	a0,-200(s0)
204020b2:	f2b42e23          	sw	a1,-196(s0)
  if (later > current) // usual case
204020b6:	f0842603          	lw	a2,-248(s0)
204020ba:	f0c42683          	lw	a3,-244(s0)
204020be:	f3c42703          	lw	a4,-196(s0)
204020c2:	87b6                	mv	a5,a3
204020c4:	00e7ed63          	bltu	a5,a4,204020de <_ZN13LiquidCrystal11pulseEnableEv+0x10a>
204020c8:	f3c42703          	lw	a4,-196(s0)
204020cc:	87b6                	mv	a5,a3
204020ce:	0af71763          	bne	a4,a5,2040217c <_ZN13LiquidCrystal11pulseEnableEv+0x1a8>
204020d2:	f3842703          	lw	a4,-200(s0)
204020d6:	87b2                	mv	a5,a2
204020d8:	00e7e363          	bltu	a5,a4,204020de <_ZN13LiquidCrystal11pulseEnableEv+0x10a>
204020dc:	a045                	j	2040217c <_ZN13LiquidCrystal11pulseEnableEv+0x1a8>
      while (later > current) {
204020de:	f0842603          	lw	a2,-248(s0)
204020e2:	f0c42683          	lw	a3,-244(s0)
204020e6:	f3c42703          	lw	a4,-196(s0)
204020ea:	87b6                	mv	a5,a3
204020ec:	00e7ec63          	bltu	a5,a4,20402104 <_ZN13LiquidCrystal11pulseEnableEv+0x130>
204020f0:	f3c42703          	lw	a4,-196(s0)
204020f4:	87b6                	mv	a5,a3
204020f6:	1cf71363          	bne	a4,a5,204022bc <_ZN13LiquidCrystal11pulseEnableEv+0x2e8>
204020fa:	f3842703          	lw	a4,-200(s0)
204020fe:	87b2                	mv	a5,a2
20402100:	1ae7fe63          	bleu	a4,a5,204022bc <_ZN13LiquidCrystal11pulseEnableEv+0x2e8>
	rdmcycle(&current);
20402104:	b80027f3          	csrr	a5,mcycleh
20402108:	b0002773          	csrr	a4,mcycle
2040210c:	b80026f3          	csrr	a3,mcycleh
20402110:	fed79ae3          	bne	a5,a3,20402104 <_ZN13LiquidCrystal11pulseEnableEv+0x130>
20402114:	f2f42a23          	sw	a5,-204(s0)
20402118:	f2e42823          	sw	a4,-208(s0)
2040211c:	f2d42623          	sw	a3,-212(s0)
20402120:	f3042783          	lw	a5,-208(s0)
20402124:	daf42c23          	sw	a5,-584(s0)
20402128:	da042e23          	sw	zero,-580(s0)
2040212c:	f3442783          	lw	a5,-204(s0)
20402130:	daf42823          	sw	a5,-592(s0)
20402134:	da042a23          	sw	zero,-588(s0)
20402138:	db042783          	lw	a5,-592(s0)
2040213c:	00079793          	slli	a5,a5,0x0
20402140:	daf42623          	sw	a5,-596(s0)
20402144:	da042423          	sw	zero,-600(s0)
20402148:	db842683          	lw	a3,-584(s0)
2040214c:	dbc42703          	lw	a4,-580(s0)
20402150:	8636                	mv	a2,a3
20402152:	da842783          	lw	a5,-600(s0)
20402156:	dac42803          	lw	a6,-596(s0)
2040215a:	85be                	mv	a1,a5
2040215c:	8e4d                	or	a2,a2,a1
2040215e:	dac42023          	sw	a2,-608(s0)
20402162:	87c2                	mv	a5,a6
20402164:	8fd9                	or	a5,a5,a4
20402166:	daf42223          	sw	a5,-604(s0)
2040216a:	da042783          	lw	a5,-608(s0)
2040216e:	da442803          	lw	a6,-604(s0)
20402172:	f0f42423          	sw	a5,-248(s0)
20402176:	f1042623          	sw	a6,-244(s0)
2040217a:	b795                	j	204020de <_ZN13LiquidCrystal11pulseEnableEv+0x10a>
      while (later < current) {
2040217c:	f0842603          	lw	a2,-248(s0)
20402180:	f0c42683          	lw	a3,-244(s0)
20402184:	f3c42703          	lw	a4,-196(s0)
20402188:	87b6                	mv	a5,a3
2040218a:	00f76d63          	bltu	a4,a5,204021a4 <_ZN13LiquidCrystal11pulseEnableEv+0x1d0>
2040218e:	f3c42703          	lw	a4,-196(s0)
20402192:	87b6                	mv	a5,a3
20402194:	08f71463          	bne	a4,a5,2040221c <_ZN13LiquidCrystal11pulseEnableEv+0x248>
20402198:	f3842703          	lw	a4,-200(s0)
2040219c:	87b2                	mv	a5,a2
2040219e:	00f76363          	bltu	a4,a5,204021a4 <_ZN13LiquidCrystal11pulseEnableEv+0x1d0>
204021a2:	a8ad                	j	2040221c <_ZN13LiquidCrystal11pulseEnableEv+0x248>
	rdmcycle(&current);
204021a4:	b80027f3          	csrr	a5,mcycleh
204021a8:	b0002773          	csrr	a4,mcycle
204021ac:	b80026f3          	csrr	a3,mcycleh
204021b0:	fed79ae3          	bne	a5,a3,204021a4 <_ZN13LiquidCrystal11pulseEnableEv+0x1d0>
204021b4:	f2f42423          	sw	a5,-216(s0)
204021b8:	f2e42223          	sw	a4,-220(s0)
204021bc:	f2d42023          	sw	a3,-224(s0)
204021c0:	f2442783          	lw	a5,-220(s0)
204021c4:	d8f42c23          	sw	a5,-616(s0)
204021c8:	d8042e23          	sw	zero,-612(s0)
204021cc:	f2842783          	lw	a5,-216(s0)
204021d0:	d8f42823          	sw	a5,-624(s0)
204021d4:	d8042a23          	sw	zero,-620(s0)
204021d8:	d9042783          	lw	a5,-624(s0)
204021dc:	00079793          	slli	a5,a5,0x0
204021e0:	d8f42623          	sw	a5,-628(s0)
204021e4:	d8042423          	sw	zero,-632(s0)
204021e8:	d9842683          	lw	a3,-616(s0)
204021ec:	d9c42703          	lw	a4,-612(s0)
204021f0:	8636                	mv	a2,a3
204021f2:	d8842783          	lw	a5,-632(s0)
204021f6:	d8c42803          	lw	a6,-628(s0)
204021fa:	85be                	mv	a1,a5
204021fc:	8e4d                	or	a2,a2,a1
204021fe:	d8c42023          	sw	a2,-640(s0)
20402202:	87c2                	mv	a5,a6
20402204:	8fd9                	or	a5,a5,a4
20402206:	d8f42223          	sw	a5,-636(s0)
2040220a:	d8042783          	lw	a5,-640(s0)
2040220e:	d8442803          	lw	a6,-636(s0)
20402212:	f0f42423          	sw	a5,-248(s0)
20402216:	f1042623          	sw	a6,-244(s0)
2040221a:	b78d                	j	2040217c <_ZN13LiquidCrystal11pulseEnableEv+0x1a8>
      while (current < later) {
2040221c:	f0842603          	lw	a2,-248(s0)
20402220:	f0c42683          	lw	a3,-244(s0)
20402224:	f3c42703          	lw	a4,-196(s0)
20402228:	87b6                	mv	a5,a3
2040222a:	00e7ec63          	bltu	a5,a4,20402242 <_ZN13LiquidCrystal11pulseEnableEv+0x26e>
2040222e:	f3c42703          	lw	a4,-196(s0)
20402232:	87b6                	mv	a5,a3
20402234:	08f71463          	bne	a4,a5,204022bc <_ZN13LiquidCrystal11pulseEnableEv+0x2e8>
20402238:	f3842703          	lw	a4,-200(s0)
2040223c:	87b2                	mv	a5,a2
2040223e:	06e7ff63          	bleu	a4,a5,204022bc <_ZN13LiquidCrystal11pulseEnableEv+0x2e8>
	rdmcycle(&current);
20402242:	b80027f3          	csrr	a5,mcycleh
20402246:	b0002773          	csrr	a4,mcycle
2040224a:	b80026f3          	csrr	a3,mcycleh
2040224e:	fed79ae3          	bne	a5,a3,20402242 <_ZN13LiquidCrystal11pulseEnableEv+0x26e>
20402252:	f0f42e23          	sw	a5,-228(s0)
20402256:	f0e42c23          	sw	a4,-232(s0)
2040225a:	f0d42a23          	sw	a3,-236(s0)
2040225e:	f1842783          	lw	a5,-232(s0)
20402262:	d6f42c23          	sw	a5,-648(s0)
20402266:	d6042e23          	sw	zero,-644(s0)
2040226a:	f1c42783          	lw	a5,-228(s0)
2040226e:	d6f42823          	sw	a5,-656(s0)
20402272:	d6042a23          	sw	zero,-652(s0)
20402276:	d7042783          	lw	a5,-656(s0)
2040227a:	00079793          	slli	a5,a5,0x0
2040227e:	d6f42623          	sw	a5,-660(s0)
20402282:	d6042423          	sw	zero,-664(s0)
20402286:	d7842683          	lw	a3,-648(s0)
2040228a:	d7c42703          	lw	a4,-644(s0)
2040228e:	8636                	mv	a2,a3
20402290:	d6842783          	lw	a5,-664(s0)
20402294:	d6c42803          	lw	a6,-660(s0)
20402298:	85be                	mv	a1,a5
2040229a:	8e4d                	or	a2,a2,a1
2040229c:	d6c42023          	sw	a2,-672(s0)
204022a0:	87c2                	mv	a5,a6
204022a2:	8fd9                	or	a5,a5,a4
204022a4:	d6f42223          	sw	a5,-668(s0)
204022a8:	d6042783          	lw	a5,-672(s0)
204022ac:	d6442803          	lw	a6,-668(s0)
204022b0:	f0f42423          	sw	a5,-248(s0)
204022b4:	f1042623          	sw	a6,-244(s0)
204022b8:	b795                	j	2040221c <_ZN13LiquidCrystal11pulseEnableEv+0x248>
    return;
204022ba:	0001                	nop
  delayMicroseconds(1);    
  digitalWrite(_enable_pin, HIGH);
204022bc:	eec42783          	lw	a5,-276(s0)
204022c0:	00a7c783          	lbu	a5,10(a5)
204022c4:	4585                	li	a1,1
204022c6:	853e                	mv	a0,a5
204022c8:	07f000ef          	jal	ra,20402b46 <digitalWrite>
204022cc:	4785                	li	a5,1
204022ce:	f8f42823          	sw	a5,-112(s0)
  if (usec == 0) {
204022d2:	f9042783          	lw	a5,-112(s0)
204022d6:	2c078e63          	beqz	a5,204025b2 <_ZN13LiquidCrystal11pulseEnableEv+0x5de>
  rdmcycle(&current);
204022da:	b80027f3          	csrr	a5,mcycleh
204022de:	b0002773          	csrr	a4,mcycle
204022e2:	b80026f3          	csrr	a3,mcycleh
204022e6:	fed79ae3          	bne	a5,a3,204022da <_ZN13LiquidCrystal11pulseEnableEv+0x306>
204022ea:	f8f42623          	sw	a5,-116(s0)
204022ee:	f8e42423          	sw	a4,-120(s0)
204022f2:	f8d42223          	sw	a3,-124(s0)
204022f6:	f8842783          	lw	a5,-120(s0)
204022fa:	e4f42423          	sw	a5,-440(s0)
204022fe:	e4042623          	sw	zero,-436(s0)
20402302:	f8c42783          	lw	a5,-116(s0)
20402306:	e4f42023          	sw	a5,-448(s0)
2040230a:	e4042223          	sw	zero,-444(s0)
2040230e:	e4042783          	lw	a5,-448(s0)
20402312:	00079793          	slli	a5,a5,0x0
20402316:	e2f42e23          	sw	a5,-452(s0)
2040231a:	e2042c23          	sw	zero,-456(s0)
2040231e:	e4842683          	lw	a3,-440(s0)
20402322:	e4c42703          	lw	a4,-436(s0)
20402326:	8636                	mv	a2,a3
20402328:	e3842783          	lw	a5,-456(s0)
2040232c:	e3c42803          	lw	a6,-452(s0)
20402330:	85be                	mv	a1,a5
20402332:	8e4d                	or	a2,a2,a1
20402334:	e2c42823          	sw	a2,-464(s0)
20402338:	87c2                	mv	a5,a6
2040233a:	8fd9                	or	a5,a5,a4
2040233c:	e2f42a23          	sw	a5,-460(s0)
20402340:	e3042783          	lw	a5,-464(s0)
20402344:	e3442803          	lw	a6,-460(s0)
20402348:	f0f42023          	sw	a5,-256(s0)
2040234c:	f1042223          	sw	a6,-252(s0)
  later = current + usec * (F_CPU/1000000);
20402350:	f9042783          	lw	a5,-112(s0)
20402354:	e2f42423          	sw	a5,-472(s0)
20402358:	e2042623          	sw	zero,-468(s0)
2040235c:	e2842683          	lw	a3,-472(s0)
20402360:	e2c42703          	lw	a4,-468(s0)
20402364:	87b6                	mv	a5,a3
20402366:	83f1                	srli	a5,a5,0x1c
20402368:	863a                	mv	a2,a4
2040236a:	0612                	slli	a2,a2,0x4
2040236c:	ecc42e23          	sw	a2,-292(s0)
20402370:	edc42603          	lw	a2,-292(s0)
20402374:	8fd1                	or	a5,a5,a2
20402376:	ecf42e23          	sw	a5,-292(s0)
2040237a:	87b6                	mv	a5,a3
2040237c:	0792                	slli	a5,a5,0x4
2040237e:	ecf42c23          	sw	a5,-296(s0)
20402382:	ed842783          	lw	a5,-296(s0)
20402386:	edc42803          	lw	a6,-292(s0)
2040238a:	f0042683          	lw	a3,-256(s0)
2040238e:	f0442703          	lw	a4,-252(s0)
20402392:	00d78533          	add	a0,a5,a3
20402396:	862a                	mv	a2,a0
20402398:	00f63633          	sltu	a2,a2,a5
2040239c:	00e805b3          	add	a1,a6,a4
204023a0:	00b607b3          	add	a5,a2,a1
204023a4:	85be                	mv	a1,a5
204023a6:	f6a42c23          	sw	a0,-136(s0)
204023aa:	f6b42e23          	sw	a1,-132(s0)
  if (later > current) // usual case
204023ae:	f0042603          	lw	a2,-256(s0)
204023b2:	f0442683          	lw	a3,-252(s0)
204023b6:	f7c42703          	lw	a4,-132(s0)
204023ba:	87b6                	mv	a5,a3
204023bc:	00e7ed63          	bltu	a5,a4,204023d6 <_ZN13LiquidCrystal11pulseEnableEv+0x402>
204023c0:	f7c42703          	lw	a4,-132(s0)
204023c4:	87b6                	mv	a5,a3
204023c6:	0af71763          	bne	a4,a5,20402474 <_ZN13LiquidCrystal11pulseEnableEv+0x4a0>
204023ca:	f7842703          	lw	a4,-136(s0)
204023ce:	87b2                	mv	a5,a2
204023d0:	00e7e363          	bltu	a5,a4,204023d6 <_ZN13LiquidCrystal11pulseEnableEv+0x402>
204023d4:	a045                	j	20402474 <_ZN13LiquidCrystal11pulseEnableEv+0x4a0>
      while (later > current) {
204023d6:	f0042603          	lw	a2,-256(s0)
204023da:	f0442683          	lw	a3,-252(s0)
204023de:	f7c42703          	lw	a4,-132(s0)
204023e2:	87b6                	mv	a5,a3
204023e4:	00e7ec63          	bltu	a5,a4,204023fc <_ZN13LiquidCrystal11pulseEnableEv+0x428>
204023e8:	f7c42703          	lw	a4,-132(s0)
204023ec:	87b6                	mv	a5,a3
204023ee:	1cf71363          	bne	a4,a5,204025b4 <_ZN13LiquidCrystal11pulseEnableEv+0x5e0>
204023f2:	f7842703          	lw	a4,-136(s0)
204023f6:	87b2                	mv	a5,a2
204023f8:	1ae7fe63          	bleu	a4,a5,204025b4 <_ZN13LiquidCrystal11pulseEnableEv+0x5e0>
	rdmcycle(&current);
204023fc:	b80027f3          	csrr	a5,mcycleh
20402400:	b0002773          	csrr	a4,mcycle
20402404:	b80026f3          	csrr	a3,mcycleh
20402408:	fed79ae3          	bne	a5,a3,204023fc <_ZN13LiquidCrystal11pulseEnableEv+0x428>
2040240c:	f6f42a23          	sw	a5,-140(s0)
20402410:	f6e42823          	sw	a4,-144(s0)
20402414:	f6d42623          	sw	a3,-148(s0)
20402418:	f7042783          	lw	a5,-144(s0)
2040241c:	e2f42023          	sw	a5,-480(s0)
20402420:	e2042223          	sw	zero,-476(s0)
20402424:	f7442783          	lw	a5,-140(s0)
20402428:	e0f42c23          	sw	a5,-488(s0)
2040242c:	e0042e23          	sw	zero,-484(s0)
20402430:	e1842783          	lw	a5,-488(s0)
20402434:	00079793          	slli	a5,a5,0x0
20402438:	e0f42a23          	sw	a5,-492(s0)
2040243c:	e0042823          	sw	zero,-496(s0)
20402440:	e2042683          	lw	a3,-480(s0)
20402444:	e2442703          	lw	a4,-476(s0)
20402448:	8636                	mv	a2,a3
2040244a:	e1042783          	lw	a5,-496(s0)
2040244e:	e1442803          	lw	a6,-492(s0)
20402452:	85be                	mv	a1,a5
20402454:	8e4d                	or	a2,a2,a1
20402456:	e0c42423          	sw	a2,-504(s0)
2040245a:	87c2                	mv	a5,a6
2040245c:	8fd9                	or	a5,a5,a4
2040245e:	e0f42623          	sw	a5,-500(s0)
20402462:	e0842783          	lw	a5,-504(s0)
20402466:	e0c42803          	lw	a6,-500(s0)
2040246a:	f0f42023          	sw	a5,-256(s0)
2040246e:	f1042223          	sw	a6,-252(s0)
20402472:	b795                	j	204023d6 <_ZN13LiquidCrystal11pulseEnableEv+0x402>
      while (later < current) {
20402474:	f0042603          	lw	a2,-256(s0)
20402478:	f0442683          	lw	a3,-252(s0)
2040247c:	f7c42703          	lw	a4,-132(s0)
20402480:	87b6                	mv	a5,a3
20402482:	00f76d63          	bltu	a4,a5,2040249c <_ZN13LiquidCrystal11pulseEnableEv+0x4c8>
20402486:	f7c42703          	lw	a4,-132(s0)
2040248a:	87b6                	mv	a5,a3
2040248c:	08f71463          	bne	a4,a5,20402514 <_ZN13LiquidCrystal11pulseEnableEv+0x540>
20402490:	f7842703          	lw	a4,-136(s0)
20402494:	87b2                	mv	a5,a2
20402496:	00f76363          	bltu	a4,a5,2040249c <_ZN13LiquidCrystal11pulseEnableEv+0x4c8>
2040249a:	a8ad                	j	20402514 <_ZN13LiquidCrystal11pulseEnableEv+0x540>
	rdmcycle(&current);
2040249c:	b80027f3          	csrr	a5,mcycleh
204024a0:	b0002773          	csrr	a4,mcycle
204024a4:	b80026f3          	csrr	a3,mcycleh
204024a8:	fed79ae3          	bne	a5,a3,2040249c <_ZN13LiquidCrystal11pulseEnableEv+0x4c8>
204024ac:	f6f42423          	sw	a5,-152(s0)
204024b0:	f6e42223          	sw	a4,-156(s0)
204024b4:	f6d42023          	sw	a3,-160(s0)
204024b8:	f6442783          	lw	a5,-156(s0)
204024bc:	e0f42023          	sw	a5,-512(s0)
204024c0:	e0042223          	sw	zero,-508(s0)
204024c4:	f6842783          	lw	a5,-152(s0)
204024c8:	def42c23          	sw	a5,-520(s0)
204024cc:	de042e23          	sw	zero,-516(s0)
204024d0:	df842783          	lw	a5,-520(s0)
204024d4:	00079793          	slli	a5,a5,0x0
204024d8:	def42a23          	sw	a5,-524(s0)
204024dc:	de042823          	sw	zero,-528(s0)
204024e0:	e0042683          	lw	a3,-512(s0)
204024e4:	e0442703          	lw	a4,-508(s0)
204024e8:	8636                	mv	a2,a3
204024ea:	df042783          	lw	a5,-528(s0)
204024ee:	df442803          	lw	a6,-524(s0)
204024f2:	85be                	mv	a1,a5
204024f4:	8e4d                	or	a2,a2,a1
204024f6:	dec42423          	sw	a2,-536(s0)
204024fa:	87c2                	mv	a5,a6
204024fc:	8fd9                	or	a5,a5,a4
204024fe:	def42623          	sw	a5,-532(s0)
20402502:	de842783          	lw	a5,-536(s0)
20402506:	dec42803          	lw	a6,-532(s0)
2040250a:	f0f42023          	sw	a5,-256(s0)
2040250e:	f1042223          	sw	a6,-252(s0)
20402512:	b78d                	j	20402474 <_ZN13LiquidCrystal11pulseEnableEv+0x4a0>
      while (current < later) {
20402514:	f0042603          	lw	a2,-256(s0)
20402518:	f0442683          	lw	a3,-252(s0)
2040251c:	f7c42703          	lw	a4,-132(s0)
20402520:	87b6                	mv	a5,a3
20402522:	00e7ec63          	bltu	a5,a4,2040253a <_ZN13LiquidCrystal11pulseEnableEv+0x566>
20402526:	f7c42703          	lw	a4,-132(s0)
2040252a:	87b6                	mv	a5,a3
2040252c:	08f71463          	bne	a4,a5,204025b4 <_ZN13LiquidCrystal11pulseEnableEv+0x5e0>
20402530:	f7842703          	lw	a4,-136(s0)
20402534:	87b2                	mv	a5,a2
20402536:	06e7ff63          	bleu	a4,a5,204025b4 <_ZN13LiquidCrystal11pulseEnableEv+0x5e0>
	rdmcycle(&current);
2040253a:	b80027f3          	csrr	a5,mcycleh
2040253e:	b0002773          	csrr	a4,mcycle
20402542:	b80026f3          	csrr	a3,mcycleh
20402546:	fed79ae3          	bne	a5,a3,2040253a <_ZN13LiquidCrystal11pulseEnableEv+0x566>
2040254a:	f4f42e23          	sw	a5,-164(s0)
2040254e:	f4e42c23          	sw	a4,-168(s0)
20402552:	f4d42a23          	sw	a3,-172(s0)
20402556:	f5842783          	lw	a5,-168(s0)
2040255a:	def42023          	sw	a5,-544(s0)
2040255e:	de042223          	sw	zero,-540(s0)
20402562:	f5c42783          	lw	a5,-164(s0)
20402566:	dcf42c23          	sw	a5,-552(s0)
2040256a:	dc042e23          	sw	zero,-548(s0)
2040256e:	dd842783          	lw	a5,-552(s0)
20402572:	00079793          	slli	a5,a5,0x0
20402576:	dcf42a23          	sw	a5,-556(s0)
2040257a:	dc042823          	sw	zero,-560(s0)
2040257e:	de042683          	lw	a3,-544(s0)
20402582:	de442703          	lw	a4,-540(s0)
20402586:	8636                	mv	a2,a3
20402588:	dd042783          	lw	a5,-560(s0)
2040258c:	dd442803          	lw	a6,-556(s0)
20402590:	85be                	mv	a1,a5
20402592:	8e4d                	or	a2,a2,a1
20402594:	dcc42423          	sw	a2,-568(s0)
20402598:	87c2                	mv	a5,a6
2040259a:	8fd9                	or	a5,a5,a4
2040259c:	dcf42623          	sw	a5,-564(s0)
204025a0:	dc842783          	lw	a5,-568(s0)
204025a4:	dcc42803          	lw	a6,-564(s0)
204025a8:	f0f42023          	sw	a5,-256(s0)
204025ac:	f1042223          	sw	a6,-252(s0)
204025b0:	b795                	j	20402514 <_ZN13LiquidCrystal11pulseEnableEv+0x540>
    return;
204025b2:	0001                	nop
  delayMicroseconds(1);    // enable pulse must be >450ns
  digitalWrite(_enable_pin, LOW);
204025b4:	eec42783          	lw	a5,-276(s0)
204025b8:	00a7c783          	lbu	a5,10(a5)
204025bc:	4581                	li	a1,0
204025be:	853e                	mv	a0,a5
204025c0:	2359                	jal	20402b46 <digitalWrite>
204025c2:	06400793          	li	a5,100
204025c6:	fcf42623          	sw	a5,-52(s0)
  if (usec == 0) {
204025ca:	fcc42783          	lw	a5,-52(s0)
204025ce:	e399                	bnez	a5,204025d4 <_ZN13LiquidCrystal11pulseEnableEv+0x600>
    return;
204025d0:	0001                	nop
  delayMicroseconds(100);   // commands need > 37us to settle
}
204025d2:	ace1                	j	204028aa <_ZN13LiquidCrystal11pulseEnableEv+0x8d6>
  rdmcycle(&current);
204025d4:	b80027f3          	csrr	a5,mcycleh
204025d8:	b0002773          	csrr	a4,mcycle
204025dc:	b80026f3          	csrr	a3,mcycleh
204025e0:	fed79ae3          	bne	a5,a3,204025d4 <_ZN13LiquidCrystal11pulseEnableEv+0x600>
204025e4:	fcf42423          	sw	a5,-56(s0)
204025e8:	fce42223          	sw	a4,-60(s0)
204025ec:	fcd42023          	sw	a3,-64(s0)
204025f0:	fc442783          	lw	a5,-60(s0)
204025f4:	ecf42823          	sw	a5,-304(s0)
204025f8:	ec042a23          	sw	zero,-300(s0)
204025fc:	fc842783          	lw	a5,-56(s0)
20402600:	ecf42423          	sw	a5,-312(s0)
20402604:	ec042623          	sw	zero,-308(s0)
20402608:	ec842783          	lw	a5,-312(s0)
2040260c:	00079793          	slli	a5,a5,0x0
20402610:	ecf42223          	sw	a5,-316(s0)
20402614:	ec042023          	sw	zero,-320(s0)
20402618:	ed042683          	lw	a3,-304(s0)
2040261c:	ed442703          	lw	a4,-300(s0)
20402620:	8636                	mv	a2,a3
20402622:	ec042783          	lw	a5,-320(s0)
20402626:	ec442803          	lw	a6,-316(s0)
2040262a:	85be                	mv	a1,a5
2040262c:	8e4d                	or	a2,a2,a1
2040262e:	eac42c23          	sw	a2,-328(s0)
20402632:	87c2                	mv	a5,a6
20402634:	8fd9                	or	a5,a5,a4
20402636:	eaf42e23          	sw	a5,-324(s0)
2040263a:	eb842783          	lw	a5,-328(s0)
2040263e:	ebc42803          	lw	a6,-324(s0)
20402642:	eef42c23          	sw	a5,-264(s0)
20402646:	ef042e23          	sw	a6,-260(s0)
  later = current + usec * (F_CPU/1000000);
2040264a:	fcc42783          	lw	a5,-52(s0)
2040264e:	eaf42823          	sw	a5,-336(s0)
20402652:	ea042a23          	sw	zero,-332(s0)
20402656:	eb042683          	lw	a3,-336(s0)
2040265a:	eb442703          	lw	a4,-332(s0)
2040265e:	87b6                	mv	a5,a3
20402660:	83f1                	srli	a5,a5,0x1c
20402662:	863a                	mv	a2,a4
20402664:	0612                	slli	a2,a2,0x4
20402666:	eec42223          	sw	a2,-284(s0)
2040266a:	ee442603          	lw	a2,-284(s0)
2040266e:	8fd1                	or	a5,a5,a2
20402670:	eef42223          	sw	a5,-284(s0)
20402674:	87b6                	mv	a5,a3
20402676:	0792                	slli	a5,a5,0x4
20402678:	eef42023          	sw	a5,-288(s0)
2040267c:	ee042783          	lw	a5,-288(s0)
20402680:	ee442803          	lw	a6,-284(s0)
20402684:	ef842583          	lw	a1,-264(s0)
20402688:	efc42603          	lw	a2,-260(s0)
2040268c:	00b786b3          	add	a3,a5,a1
20402690:	8536                	mv	a0,a3
20402692:	00f53533          	sltu	a0,a0,a5
20402696:	00c80733          	add	a4,a6,a2
2040269a:	00e507b3          	add	a5,a0,a4
2040269e:	873e                	mv	a4,a5
204026a0:	fad42c23          	sw	a3,-72(s0)
204026a4:	fae42e23          	sw	a4,-68(s0)
  if (later > current) // usual case
204026a8:	ef842683          	lw	a3,-264(s0)
204026ac:	efc42703          	lw	a4,-260(s0)
204026b0:	fbc42603          	lw	a2,-68(s0)
204026b4:	87ba                	mv	a5,a4
204026b6:	00c7ed63          	bltu	a5,a2,204026d0 <_ZN13LiquidCrystal11pulseEnableEv+0x6fc>
204026ba:	fbc42603          	lw	a2,-68(s0)
204026be:	87ba                	mv	a5,a4
204026c0:	0af61763          	bne	a2,a5,2040276e <_ZN13LiquidCrystal11pulseEnableEv+0x79a>
204026c4:	fb842783          	lw	a5,-72(s0)
204026c8:	8736                	mv	a4,a3
204026ca:	00f76363          	bltu	a4,a5,204026d0 <_ZN13LiquidCrystal11pulseEnableEv+0x6fc>
204026ce:	a045                	j	2040276e <_ZN13LiquidCrystal11pulseEnableEv+0x79a>
      while (later > current) {
204026d0:	ef842783          	lw	a5,-264(s0)
204026d4:	efc42803          	lw	a6,-260(s0)
204026d8:	fbc42703          	lw	a4,-68(s0)
204026dc:	86c2                	mv	a3,a6
204026de:	00e6ec63          	bltu	a3,a4,204026f6 <_ZN13LiquidCrystal11pulseEnableEv+0x722>
204026e2:	fbc42703          	lw	a4,-68(s0)
204026e6:	86c2                	mv	a3,a6
204026e8:	1cd71163          	bne	a4,a3,204028aa <_ZN13LiquidCrystal11pulseEnableEv+0x8d6>
204026ec:	fb842703          	lw	a4,-72(s0)
204026f0:	00e7e363          	bltu	a5,a4,204026f6 <_ZN13LiquidCrystal11pulseEnableEv+0x722>
204026f4:	aa5d                	j	204028aa <_ZN13LiquidCrystal11pulseEnableEv+0x8d6>
	rdmcycle(&current);
204026f6:	b80026f3          	csrr	a3,mcycleh
204026fa:	b0002773          	csrr	a4,mcycle
204026fe:	b80027f3          	csrr	a5,mcycleh
20402702:	fef69ae3          	bne	a3,a5,204026f6 <_ZN13LiquidCrystal11pulseEnableEv+0x722>
20402706:	fad42a23          	sw	a3,-76(s0)
2040270a:	fae42823          	sw	a4,-80(s0)
2040270e:	faf42623          	sw	a5,-84(s0)
20402712:	fb042783          	lw	a5,-80(s0)
20402716:	eaf42423          	sw	a5,-344(s0)
2040271a:	ea042623          	sw	zero,-340(s0)
2040271e:	fb442783          	lw	a5,-76(s0)
20402722:	eaf42023          	sw	a5,-352(s0)
20402726:	ea042223          	sw	zero,-348(s0)
2040272a:	ea042783          	lw	a5,-352(s0)
2040272e:	00079793          	slli	a5,a5,0x0
20402732:	e8f42e23          	sw	a5,-356(s0)
20402736:	e8042c23          	sw	zero,-360(s0)
2040273a:	ea842683          	lw	a3,-344(s0)
2040273e:	eac42703          	lw	a4,-340(s0)
20402742:	8636                	mv	a2,a3
20402744:	e9842783          	lw	a5,-360(s0)
20402748:	e9c42803          	lw	a6,-356(s0)
2040274c:	85be                	mv	a1,a5
2040274e:	8e4d                	or	a2,a2,a1
20402750:	e8c42823          	sw	a2,-368(s0)
20402754:	87c2                	mv	a5,a6
20402756:	8fd9                	or	a5,a5,a4
20402758:	e8f42a23          	sw	a5,-364(s0)
2040275c:	e9042783          	lw	a5,-368(s0)
20402760:	e9442803          	lw	a6,-364(s0)
20402764:	eef42c23          	sw	a5,-264(s0)
20402768:	ef042e23          	sw	a6,-260(s0)
2040276c:	b795                	j	204026d0 <_ZN13LiquidCrystal11pulseEnableEv+0x6fc>
      while (later < current) {
2040276e:	ef842783          	lw	a5,-264(s0)
20402772:	efc42803          	lw	a6,-260(s0)
20402776:	fbc42703          	lw	a4,-68(s0)
2040277a:	86c2                	mv	a3,a6
2040277c:	00d76c63          	bltu	a4,a3,20402794 <_ZN13LiquidCrystal11pulseEnableEv+0x7c0>
20402780:	fbc42703          	lw	a4,-68(s0)
20402784:	86c2                	mv	a3,a6
20402786:	08d71363          	bne	a4,a3,2040280c <_ZN13LiquidCrystal11pulseEnableEv+0x838>
2040278a:	fb842703          	lw	a4,-72(s0)
2040278e:	00f76363          	bltu	a4,a5,20402794 <_ZN13LiquidCrystal11pulseEnableEv+0x7c0>
20402792:	a8ad                	j	2040280c <_ZN13LiquidCrystal11pulseEnableEv+0x838>
	rdmcycle(&current);
20402794:	b80026f3          	csrr	a3,mcycleh
20402798:	b0002773          	csrr	a4,mcycle
2040279c:	b80027f3          	csrr	a5,mcycleh
204027a0:	fef69ae3          	bne	a3,a5,20402794 <_ZN13LiquidCrystal11pulseEnableEv+0x7c0>
204027a4:	fad42423          	sw	a3,-88(s0)
204027a8:	fae42223          	sw	a4,-92(s0)
204027ac:	faf42023          	sw	a5,-96(s0)
204027b0:	fa442783          	lw	a5,-92(s0)
204027b4:	e8f42423          	sw	a5,-376(s0)
204027b8:	e8042623          	sw	zero,-372(s0)
204027bc:	fa842783          	lw	a5,-88(s0)
204027c0:	e8f42023          	sw	a5,-384(s0)
204027c4:	e8042223          	sw	zero,-380(s0)
204027c8:	e8042783          	lw	a5,-384(s0)
204027cc:	00079793          	slli	a5,a5,0x0
204027d0:	e6f42e23          	sw	a5,-388(s0)
204027d4:	e6042c23          	sw	zero,-392(s0)
204027d8:	e8842683          	lw	a3,-376(s0)
204027dc:	e8c42703          	lw	a4,-372(s0)
204027e0:	8636                	mv	a2,a3
204027e2:	e7842783          	lw	a5,-392(s0)
204027e6:	e7c42803          	lw	a6,-388(s0)
204027ea:	85be                	mv	a1,a5
204027ec:	8e4d                	or	a2,a2,a1
204027ee:	e6c42823          	sw	a2,-400(s0)
204027f2:	87c2                	mv	a5,a6
204027f4:	8fd9                	or	a5,a5,a4
204027f6:	e6f42a23          	sw	a5,-396(s0)
204027fa:	e7042783          	lw	a5,-400(s0)
204027fe:	e7442803          	lw	a6,-396(s0)
20402802:	eef42c23          	sw	a5,-264(s0)
20402806:	ef042e23          	sw	a6,-260(s0)
2040280a:	b795                	j	2040276e <_ZN13LiquidCrystal11pulseEnableEv+0x79a>
      while (current < later) {
2040280c:	ef842783          	lw	a5,-264(s0)
20402810:	efc42803          	lw	a6,-260(s0)
20402814:	fbc42703          	lw	a4,-68(s0)
20402818:	86c2                	mv	a3,a6
2040281a:	00e6ec63          	bltu	a3,a4,20402832 <_ZN13LiquidCrystal11pulseEnableEv+0x85e>
2040281e:	fbc42703          	lw	a4,-68(s0)
20402822:	86c2                	mv	a3,a6
20402824:	08d71363          	bne	a4,a3,204028aa <_ZN13LiquidCrystal11pulseEnableEv+0x8d6>
20402828:	fb842703          	lw	a4,-72(s0)
2040282c:	00e7e363          	bltu	a5,a4,20402832 <_ZN13LiquidCrystal11pulseEnableEv+0x85e>
20402830:	a8ad                	j	204028aa <_ZN13LiquidCrystal11pulseEnableEv+0x8d6>
	rdmcycle(&current);
20402832:	b80026f3          	csrr	a3,mcycleh
20402836:	b0002773          	csrr	a4,mcycle
2040283a:	b80027f3          	csrr	a5,mcycleh
2040283e:	fef69ae3          	bne	a3,a5,20402832 <_ZN13LiquidCrystal11pulseEnableEv+0x85e>
20402842:	f8d42e23          	sw	a3,-100(s0)
20402846:	f8e42c23          	sw	a4,-104(s0)
2040284a:	f8f42a23          	sw	a5,-108(s0)
2040284e:	f9842783          	lw	a5,-104(s0)
20402852:	e6f42423          	sw	a5,-408(s0)
20402856:	e6042623          	sw	zero,-404(s0)
2040285a:	f9c42783          	lw	a5,-100(s0)
2040285e:	e6f42023          	sw	a5,-416(s0)
20402862:	e6042223          	sw	zero,-412(s0)
20402866:	e6042783          	lw	a5,-416(s0)
2040286a:	00079793          	slli	a5,a5,0x0
2040286e:	e4f42e23          	sw	a5,-420(s0)
20402872:	e4042c23          	sw	zero,-424(s0)
20402876:	e6842683          	lw	a3,-408(s0)
2040287a:	e6c42703          	lw	a4,-404(s0)
2040287e:	8636                	mv	a2,a3
20402880:	e5842783          	lw	a5,-424(s0)
20402884:	e5c42803          	lw	a6,-420(s0)
20402888:	85be                	mv	a1,a5
2040288a:	8e4d                	or	a2,a2,a1
2040288c:	e4c42823          	sw	a2,-432(s0)
20402890:	87c2                	mv	a5,a6
20402892:	8fd9                	or	a5,a5,a4
20402894:	e4f42a23          	sw	a5,-428(s0)
20402898:	e5042783          	lw	a5,-432(s0)
2040289c:	e5442803          	lw	a6,-428(s0)
204028a0:	eef42c23          	sw	a5,-264(s0)
204028a4:	ef042e23          	sw	a6,-260(s0)
204028a8:	b795                	j	2040280c <_ZN13LiquidCrystal11pulseEnableEv+0x838>
204028aa:	0001                	nop
204028ac:	838a                	mv	t2,sp
204028ae:	29c12083          	lw	ra,668(sp)
204028b2:	29812403          	lw	s0,664(sp)
204028b6:	29412903          	lw	s2,660(sp)
204028ba:	29012983          	lw	s3,656(sp)
204028be:	28c12a03          	lw	s4,652(sp)
204028c2:	28812a83          	lw	s5,648(sp)
204028c6:	28412b03          	lw	s6,644(sp)
204028ca:	28012b83          	lw	s7,640(sp)
204028ce:	27c12c03          	lw	s8,636(sp)
204028d2:	27812c83          	lw	s9,632(sp)
204028d6:	27412d03          	lw	s10,628(sp)
204028da:	27012d83          	lw	s11,624(sp)
204028de:	2a010113          	addi	sp,sp,672
204028e2:	8082                	ret

204028e4 <_ZN13LiquidCrystal10write4bitsEh>:

void LiquidCrystal::write4bits(uint8_t value) {
204028e4:	7179                	addi	sp,sp,-48
204028e6:	d606                	sw	ra,44(sp)
204028e8:	d422                	sw	s0,40(sp)
204028ea:	1800                	addi	s0,sp,48
204028ec:	fca42e23          	sw	a0,-36(s0)
204028f0:	87ae                	mv	a5,a1
204028f2:	fcf40da3          	sb	a5,-37(s0)
  for (int i = 0; i < 4; i++) {
204028f6:	fe042623          	sw	zero,-20(s0)
204028fa:	fec42703          	lw	a4,-20(s0)
204028fe:	478d                	li	a5,3
20402900:	02e7ca63          	blt	a5,a4,20402934 <_ZN13LiquidCrystal10write4bitsEh+0x50>
    digitalWrite(_data_pins[i], (value >> i) & 0x01);
20402904:	fdc42703          	lw	a4,-36(s0)
20402908:	fec42783          	lw	a5,-20(s0)
2040290c:	97ba                	add	a5,a5,a4
2040290e:	00b7c783          	lbu	a5,11(a5)
20402912:	86be                	mv	a3,a5
20402914:	fdb44703          	lbu	a4,-37(s0)
20402918:	fec42783          	lw	a5,-20(s0)
2040291c:	40f757b3          	sra	a5,a4,a5
20402920:	8b85                	andi	a5,a5,1
20402922:	85be                	mv	a1,a5
20402924:	8536                	mv	a0,a3
20402926:	2405                	jal	20402b46 <digitalWrite>
  for (int i = 0; i < 4; i++) {
20402928:	fec42783          	lw	a5,-20(s0)
2040292c:	0785                	addi	a5,a5,1
2040292e:	fef42623          	sw	a5,-20(s0)
20402932:	b7e1                	j	204028fa <_ZN13LiquidCrystal10write4bitsEh+0x16>
  }

  pulseEnable();
20402934:	fdc42503          	lw	a0,-36(s0)
20402938:	e9cff0ef          	jal	ra,20401fd4 <_ZN13LiquidCrystal11pulseEnableEv>
}
2040293c:	0001                	nop
2040293e:	838a                	mv	t2,sp
20402940:	50b2                	lw	ra,44(sp)
20402942:	5422                	lw	s0,40(sp)
20402944:	6145                	addi	sp,sp,48
20402946:	8082                	ret

20402948 <_ZN13LiquidCrystal10write8bitsEh>:

void LiquidCrystal::write8bits(uint8_t value) {
20402948:	7179                	addi	sp,sp,-48
2040294a:	d606                	sw	ra,44(sp)
2040294c:	d422                	sw	s0,40(sp)
2040294e:	1800                	addi	s0,sp,48
20402950:	fca42e23          	sw	a0,-36(s0)
20402954:	87ae                	mv	a5,a1
20402956:	fcf40da3          	sb	a5,-37(s0)
  for (int i = 0; i < 8; i++) {
2040295a:	fe042623          	sw	zero,-20(s0)
2040295e:	fec42703          	lw	a4,-20(s0)
20402962:	479d                	li	a5,7
20402964:	02e7ca63          	blt	a5,a4,20402998 <_ZN13LiquidCrystal10write8bitsEh+0x50>
    digitalWrite(_data_pins[i], (value >> i) & 0x01);
20402968:	fdc42703          	lw	a4,-36(s0)
2040296c:	fec42783          	lw	a5,-20(s0)
20402970:	97ba                	add	a5,a5,a4
20402972:	00b7c783          	lbu	a5,11(a5)
20402976:	86be                	mv	a3,a5
20402978:	fdb44703          	lbu	a4,-37(s0)
2040297c:	fec42783          	lw	a5,-20(s0)
20402980:	40f757b3          	sra	a5,a4,a5
20402984:	8b85                	andi	a5,a5,1
20402986:	85be                	mv	a1,a5
20402988:	8536                	mv	a0,a3
2040298a:	2a75                	jal	20402b46 <digitalWrite>
  for (int i = 0; i < 8; i++) {
2040298c:	fec42783          	lw	a5,-20(s0)
20402990:	0785                	addi	a5,a5,1
20402992:	fef42623          	sw	a5,-20(s0)
20402996:	b7e1                	j	2040295e <_ZN13LiquidCrystal10write8bitsEh+0x16>
  }
  
  pulseEnable();
20402998:	fdc42503          	lw	a0,-36(s0)
2040299c:	e38ff0ef          	jal	ra,20401fd4 <_ZN13LiquidCrystal11pulseEnableEv>
}
204029a0:	0001                	nop
204029a2:	838a                	mv	t2,sp
204029a4:	50b2                	lw	ra,44(sp)
204029a6:	5422                	lw	s0,40(sp)
204029a8:	6145                	addi	sp,sp,48
204029aa:	8082                	ret

204029ac <__wrap_malloc>:

/* These functions are intended for embedded RV32 systems and are
   obviously incorrect in general. */

void* __wrap_malloc(unsigned long sz)
{
204029ac:	1141                	addi	sp,sp,-16
204029ae:	c606                	sw	ra,12(sp)
  extern void* sbrk(long);
  void* res = sbrk(sz);
204029b0:	2819                	jal	204029c6 <__wrap_sbrk>
  if ((long)res == -1)
    return 0;
204029b2:	00150793          	addi	a5,a0,1
  return res;
}
204029b6:	40b2                	lw	ra,12(sp)
    return 0;
204029b8:	00f037b3          	snez	a5,a5
204029bc:	40f007b3          	neg	a5,a5
}
204029c0:	8d7d                	and	a0,a0,a5
204029c2:	0141                	addi	sp,sp,16
204029c4:	8082                	ret

204029c6 <__wrap_sbrk>:
{
  extern char _end[];
  extern char _heap_end[];
  static char *curbrk = _end;

  if ((curbrk + incr < _end) || (curbrk + incr > _heap_end))
204029c6:	800007b7          	lui	a5,0x80000
204029ca:	43078793          	addi	a5,a5,1072 # 80000430 <_sp+0xffffc430>
204029ce:	4394                	lw	a3,0(a5)
204029d0:	80000737          	lui	a4,0x80000
204029d4:	49870713          	addi	a4,a4,1176 # 80000498 <_sp+0xffffc498>
204029d8:	9536                	add	a0,a0,a3
204029da:	00e56b63          	bltu	a0,a4,204029f0 <__wrap_sbrk+0x2a>
204029de:	80004737          	lui	a4,0x80004
204029e2:	80070713          	addi	a4,a4,-2048 # 80003800 <_sp+0xfffff800>
204029e6:	00a76563          	bltu	a4,a0,204029f0 <__wrap_sbrk+0x2a>
    return NULL - 1;

  curbrk += incr;
204029ea:	c388                	sw	a0,0(a5)
  return curbrk - incr;
}
204029ec:	8536                	mv	a0,a3
204029ee:	8082                	ret
    return NULL - 1;
204029f0:	56fd                	li	a3,-1
}
204029f2:	8536                	mv	a0,a3
204029f4:	8082                	ret

204029f6 <calc_inv>:
int_inverse f_cpu_1000_inv;
int_inverse f_cpu_1000000_inv;

void calc_inv(uint32_t n, int_inverse * res){
  uint32_t one = ~0;
  uint32_t d = one/n;
204029f6:	57fd                	li	a5,-1
  uint32_t r = one%n + 1;
204029f8:	02a7f733          	remu	a4,a5,a0
  if (r >= n) ++d;
  if (d == 0) --d;
204029fc:	56fd                	li	a3,-1
  uint32_t d = one/n;
204029fe:	02a7d7b3          	divu	a5,a5,a0
  uint32_t r = one%n + 1;
20402a02:	0705                	addi	a4,a4,1
  if (r >= n) ++d;
20402a04:	00a73733          	sltu	a4,a4,a0
20402a08:	00174713          	xori	a4,a4,1
20402a0c:	97ba                	add	a5,a5,a4
  if (d == 0) --d;
20402a0e:	cb91                	beqz	a5,20402a22 <calc_inv+0x2c>
  uint32_t shift = 0;
  while ((d & 0x80000000) == 0){
20402a10:	0007cd63          	bltz	a5,20402a2a <calc_inv+0x34>
20402a14:	4701                	li	a4,0
    d <<= 1;
20402a16:	0786                	slli	a5,a5,0x1
    ++shift;
20402a18:	0705                	addi	a4,a4,1
  while ((d & 0x80000000) == 0){
20402a1a:	fe07dee3          	bgez	a5,20402a16 <calc_inv+0x20>
    d <<= 1;
20402a1e:	86be                	mv	a3,a5
    ++shift;
20402a20:	87ba                	mv	a5,a4
  }
  res->n = n;
20402a22:	c188                	sw	a0,0(a1)
  res->mult = d;
20402a24:	c1d4                	sw	a3,4(a1)
  res->shift = shift;
20402a26:	c59c                	sw	a5,8(a1)
}
20402a28:	8082                	ret
  while ((d & 0x80000000) == 0){
20402a2a:	86be                	mv	a3,a5
20402a2c:	4781                	li	a5,0
20402a2e:	bfd5                	j	20402a22 <calc_inv+0x2c>

20402a30 <divide64_using_inverse>:
// If divisor-1 has i bits, then the answer is exact for n of up to 64-i bits
// e.g. for divisors up to a million, n can have up to 45 bits
// On RV32IM with divide32_using_inverse inlines this uses 5 multiplies,
// 33 instructions, zero branches, 3 loads, 0 stores.
uint64_t divide64_using_inverse(uint64_t n, int_inverse *inv){
  uint32_t preshift = (31 - inv->shift) & 31;
20402a30:	00862883          	lw	a7,8(a2)
 uint32_t d =  (uint32_t)(((uint64_t)n * inv->mult) >> 32);
20402a34:	425c                	lw	a5,4(a2)
  uint64_t d = (uint64_t)divide32_using_inverse(n >> preshift, inv) << preshift;
20402a36:	00159313          	slli	t1,a1,0x1
  uint32_t preshift = (31 - inv->shift) & 31;
20402a3a:	fff8c693          	not	a3,a7
20402a3e:	8afd                	andi	a3,a3,31
  uint64_t d = (uint64_t)divide32_using_inverse(n >> preshift, inv) << preshift;
20402a40:	fff6c593          	not	a1,a3
20402a44:	00b31333          	sll	t1,t1,a1
20402a48:	00d55833          	srl	a6,a0,a3
20402a4c:	01036833          	or	a6,t1,a6
 uint32_t d =  (uint32_t)(((uint64_t)n * inv->mult) >> 32);
20402a50:	02f83733          	mulhu	a4,a6,a5
  if (n - d*inv->n >= inv->n) ++d;
20402a54:	4210                	lw	a2,0(a2)
   d >>= inv->shift;
20402a56:	01175733          	srl	a4,a4,a7
  if (n - d*inv->n >= inv->n) ++d;
20402a5a:	02c70333          	mul	t1,a4,a2
20402a5e:	40680833          	sub	a6,a6,t1
20402a62:	00c83833          	sltu	a6,a6,a2
20402a66:	00184813          	xori	a6,a6,1
20402a6a:	9742                	add	a4,a4,a6
  uint64_t d = (uint64_t)divide32_using_inverse(n >> preshift, inv) << preshift;
20402a6c:	00d716b3          	sll	a3,a4,a3
  uint32_t r = n - d * inv->n;
20402a70:	02d60833          	mul	a6,a2,a3
  uint64_t d = (uint64_t)divide32_using_inverse(n >> preshift, inv) << preshift;
20402a74:	8305                	srli	a4,a4,0x1
20402a76:	00b755b3          	srl	a1,a4,a1
  uint32_t r = n - d * inv->n;
20402a7a:	41050533          	sub	a0,a0,a6
 uint32_t d =  (uint32_t)(((uint64_t)n * inv->mult) >> 32);
20402a7e:	02f537b3          	mulhu	a5,a0,a5
   d >>= inv->shift;
20402a82:	0117d7b3          	srl	a5,a5,a7
  if (n - d*inv->n >= inv->n) ++d;
20402a86:	02c78733          	mul	a4,a5,a2
20402a8a:	8d19                	sub	a0,a0,a4
20402a8c:	00c53533          	sltu	a0,a0,a2
20402a90:	00154513          	xori	a0,a0,1
20402a94:	97aa                	add	a5,a5,a0
  d += divide32_using_inverse(r, inv);
20402a96:	00d78533          	add	a0,a5,a3
20402a9a:	00f537b3          	sltu	a5,a0,a5
  return d;
}
20402a9e:	95be                	add	a1,a1,a5
20402aa0:	8082                	ret

20402aa2 <millis>:


uint32_t
millis()
{
20402aa2:	1141                	addi	sp,sp,-16
20402aa4:	c606                	sw	ra,12(sp)
  uint64_t x;
  rdmcycle(&x);
20402aa6:	b80025f3          	csrr	a1,mcycleh
20402aaa:	b0002573          	csrr	a0,mcycle
20402aae:	b80027f3          	csrr	a5,mcycleh
20402ab2:	fef59ae3          	bne	a1,a5,20402aa6 <millis+0x4>
  x = divide64_using_inverse(x, &f_cpu_1000_inv);
20402ab6:	80000637          	lui	a2,0x80000
20402aba:	48860613          	addi	a2,a2,1160 # 80000488 <_sp+0xffffc488>
20402abe:	3f8d                	jal	20402a30 <divide64_using_inverse>
  return((uint32_t) (x & 0xFFFFFFFF));
}
20402ac0:	40b2                	lw	ra,12(sp)
20402ac2:	0141                	addi	sp,sp,16
20402ac4:	8082                	ret

20402ac6 <pinMode>:

void
pinMode(uint32_t pin, uint32_t mode)
{
  
  if (pin >= variant_pin_map_size)
20402ac6:	204047b7          	lui	a5,0x20404
20402aca:	c507a783          	lw	a5,-944(a5) # 20403c50 <variant_pin_map_size>
20402ace:	02f57d63          	bleu	a5,a0,20402b08 <pinMode+0x42>
    return;
  
  GPIO_REG(GPIO_OUTPUT_XOR)  &= ~digitalPinToBitMask(pin);
20402ad2:	204047b7          	lui	a5,0x20404
20402ad6:	ac478793          	addi	a5,a5,-1340 # 20403ac4 <variant_pin_map>
20402ada:	050a                	slli	a0,a0,0x2
20402adc:	953e                	add	a0,a0,a5
20402ade:	00154703          	lbu	a4,1(a0)
20402ae2:	100127b7          	lui	a5,0x10012
20402ae6:	43b0                	lw	a2,64(a5)
20402ae8:	4505                	li	a0,1
20402aea:	00e51733          	sll	a4,a0,a4
20402aee:	fff74693          	not	a3,a4
20402af2:	8e75                	and	a2,a2,a3
20402af4:	c3b0                	sw	a2,64(a5)
  GPIO_REG(GPIO_IOF_EN)      &= ~digitalPinToBitMask(pin);
20402af6:	5f90                	lw	a2,56(a5)
20402af8:	8e75                	and	a2,a2,a3
20402afa:	df90                	sw	a2,56(a5)
//pwm_enabled_pin[pin] = 0;
  
  switch (mode) {
20402afc:	02a58b63          	beq	a1,a0,20402b32 <pinMode+0x6c>
20402b00:	cd99                	beqz	a1,20402b1e <pinMode+0x58>
20402b02:	4609                	li	a2,2
20402b04:	00c58363          	beq	a1,a2,20402b0a <pinMode+0x44>
    GPIO_REG(GPIO_INPUT_EN)  &= ~digitalPinToBitMask(pin);
    GPIO_REG(GPIO_OUTPUT_EN) |=  digitalPinToBitMask(pin);
    GPIO_REG(GPIO_PULLUP_EN) &= ~digitalPinToBitMask(pin);
    break;
  }
}
20402b08:	8082                	ret
    GPIO_REG(GPIO_INPUT_EN)  |=  digitalPinToBitMask(pin);
20402b0a:	43d0                	lw	a2,4(a5)
20402b0c:	8e59                	or	a2,a2,a4
20402b0e:	c3d0                	sw	a2,4(a5)
    GPIO_REG(GPIO_OUTPUT_EN) &= ~digitalPinToBitMask(pin);
20402b10:	4790                	lw	a2,8(a5)
20402b12:	8ef1                	and	a3,a3,a2
20402b14:	c794                	sw	a3,8(a5)
    GPIO_REG(GPIO_PULLUP_EN) |=  digitalPinToBitMask(pin);
20402b16:	4b94                	lw	a3,16(a5)
20402b18:	8f55                	or	a4,a4,a3
20402b1a:	cb98                	sw	a4,16(a5)
    break;
20402b1c:	8082                	ret
    GPIO_REG(GPIO_INPUT_EN)  |=  digitalPinToBitMask(pin);
20402b1e:	43d0                	lw	a2,4(a5)
20402b20:	8f51                	or	a4,a4,a2
20402b22:	c3d8                	sw	a4,4(a5)
    GPIO_REG(GPIO_OUTPUT_EN) &= ~digitalPinToBitMask(pin);
20402b24:	4798                	lw	a4,8(a5)
20402b26:	8f75                	and	a4,a4,a3
20402b28:	c798                	sw	a4,8(a5)
    GPIO_REG(GPIO_PULLUP_EN) &= ~digitalPinToBitMask(pin);
20402b2a:	4b98                	lw	a4,16(a5)
20402b2c:	8ef9                	and	a3,a3,a4
20402b2e:	cb94                	sw	a3,16(a5)
    break;
20402b30:	8082                	ret
    GPIO_REG(GPIO_INPUT_EN)  &= ~digitalPinToBitMask(pin);
20402b32:	43d0                	lw	a2,4(a5)
20402b34:	8e75                	and	a2,a2,a3
20402b36:	c3d0                	sw	a2,4(a5)
    GPIO_REG(GPIO_OUTPUT_EN) |=  digitalPinToBitMask(pin);
20402b38:	4790                	lw	a2,8(a5)
20402b3a:	8f51                	or	a4,a4,a2
20402b3c:	c798                	sw	a4,8(a5)
    GPIO_REG(GPIO_PULLUP_EN) &= ~digitalPinToBitMask(pin);
20402b3e:	4b98                	lw	a4,16(a5)
20402b40:	8ef9                	and	a3,a3,a4
20402b42:	cb94                	sw	a3,16(a5)
}
20402b44:	8082                	ret

20402b46 <digitalWrite>:


void
digitalWrite(uint32_t pin, uint32_t val)
{
  if (pin >= variant_pin_map_size)
20402b46:	204047b7          	lui	a5,0x20404
20402b4a:	c507a783          	lw	a5,-944(a5) # 20403c50 <variant_pin_map_size>
20402b4e:	02f57b63          	bleu	a5,a0,20402b84 <digitalWrite+0x3e>
    return;
  
  if (val)
20402b52:	204047b7          	lui	a5,0x20404
20402b56:	ac478793          	addi	a5,a5,-1340 # 20403ac4 <variant_pin_map>
20402b5a:	050a                	slli	a0,a0,0x2
20402b5c:	953e                	add	a0,a0,a5
20402b5e:	00154703          	lbu	a4,1(a0)
20402b62:	4785                	li	a5,1
20402b64:	00e797b3          	sll	a5,a5,a4
20402b68:	c599                	beqz	a1,20402b76 <digitalWrite+0x30>
    GPIO_REG(GPIO_OUTPUT_VAL) |=  digitalPinToBitMask(pin);
20402b6a:	100126b7          	lui	a3,0x10012
20402b6e:	46d8                	lw	a4,12(a3)
20402b70:	8fd9                	or	a5,a5,a4
20402b72:	c6dc                	sw	a5,12(a3)
20402b74:	8082                	ret
  else
    GPIO_REG(GPIO_OUTPUT_VAL) &= ~digitalPinToBitMask(pin);
20402b76:	10012737          	lui	a4,0x10012
20402b7a:	4754                	lw	a3,12(a4)
20402b7c:	fff7c793          	not	a5,a5
20402b80:	8ff5                	and	a5,a5,a3
20402b82:	c75c                	sw	a5,12(a4)

}
20402b84:	8082                	ret

20402b86 <digitalRead>:

int
digitalRead(uint32_t pin)
{
if (pin >= variant_pin_map_size)
20402b86:	204047b7          	lui	a5,0x20404
20402b8a:	c507a783          	lw	a5,-944(a5) # 20403c50 <variant_pin_map_size>
20402b8e:	02f57463          	bleu	a5,a0,20402bb6 <digitalRead+0x30>
  return 0;

 return ((GPIO_REG(GPIO_INPUT_VAL) & digitalPinToBitMask(pin)) != 0);
20402b92:	204047b7          	lui	a5,0x20404
20402b96:	ac478793          	addi	a5,a5,-1340 # 20403ac4 <variant_pin_map>
20402b9a:	050a                	slli	a0,a0,0x2
20402b9c:	953e                	add	a0,a0,a5
20402b9e:	00154703          	lbu	a4,1(a0)
20402ba2:	100127b7          	lui	a5,0x10012
20402ba6:	439c                	lw	a5,0(a5)
20402ba8:	4505                	li	a0,1
20402baa:	00e51533          	sll	a0,a0,a4
20402bae:	8d7d                	and	a0,a0,a5
20402bb0:	00a03533          	snez	a0,a0
20402bb4:	8082                	ret
  return 0;
20402bb6:	4501                	li	a0,0
}
20402bb8:	8082                	ret

20402bba <_ZN5Print5writeEPKhj>:

// Public Methods //////////////////////////////////////////////////////////////

/* default implementation: may be overridden */
size_t Print::write(const uint8_t *buffer, size_t size)
{
20402bba:	1101                	addi	sp,sp,-32
20402bbc:	ce06                	sw	ra,28(sp)
20402bbe:	cc22                	sw	s0,24(sp)
20402bc0:	ca26                	sw	s1,20(sp)
20402bc2:	c84a                	sw	s2,16(sp)
20402bc4:	c64e                	sw	s3,12(sp)
  size_t n = 0;
  while (size--) {
20402bc6:	ca0d                	beqz	a2,20402bf8 <_ZN5Print5writeEPKhj+0x3e>
20402bc8:	892a                	mv	s2,a0
20402bca:	842e                	mv	s0,a1
20402bcc:	00c589b3          	add	s3,a1,a2
  size_t n = 0;
20402bd0:	4481                	li	s1,0
    n += write(*buffer++);
20402bd2:	00092783          	lw	a5,0(s2)
20402bd6:	0405                	addi	s0,s0,1
20402bd8:	fff44583          	lbu	a1,-1(s0)
20402bdc:	439c                	lw	a5,0(a5)
20402bde:	854a                	mv	a0,s2
20402be0:	9782                	jalr	a5
20402be2:	94aa                	add	s1,s1,a0
  while (size--) {
20402be4:	fe8997e3          	bne	s3,s0,20402bd2 <_ZN5Print5writeEPKhj+0x18>
  }
  return n;
}
20402be8:	40f2                	lw	ra,28(sp)
20402bea:	4462                	lw	s0,24(sp)
20402bec:	8526                	mv	a0,s1
20402bee:	4942                	lw	s2,16(sp)
20402bf0:	44d2                	lw	s1,20(sp)
20402bf2:	49b2                	lw	s3,12(sp)
20402bf4:	6105                	addi	sp,sp,32
20402bf6:	8082                	ret
20402bf8:	40f2                	lw	ra,28(sp)
20402bfa:	4462                	lw	s0,24(sp)
  size_t n = 0;
20402bfc:	4481                	li	s1,0
}
20402bfe:	8526                	mv	a0,s1
20402c00:	4942                	lw	s2,16(sp)
20402c02:	44d2                	lw	s1,20(sp)
20402c04:	49b2                	lw	s3,12(sp)
20402c06:	6105                	addi	sp,sp,32
20402c08:	8082                	ret

20402c0a <_ZN5Print5printEPKc>:
    int getWriteError() { return write_error; }
    void clearWriteError() { setWriteError(0); }
  
    virtual size_t write(uint8_t) = 0;
    size_t write(const char *str) {
      if (str == NULL) return 0;
20402c0a:	c59d                	beqz	a1,20402c38 <_ZN5Print5printEPKc+0x2e>
      return write((const uint8_t *)str, strlen(str));
20402c0c:	411c                	lw	a5,0(a0)
{
  return write(s.c_str(), s.length());
}

size_t Print::print(const char str[])
{
20402c0e:	1141                	addi	sp,sp,-16
20402c10:	c226                	sw	s1,4(sp)
20402c12:	c04a                	sw	s2,0(sp)
20402c14:	84aa                	mv	s1,a0
20402c16:	0047a903          	lw	s2,4(a5) # 10012004 <__stack_size+0x10011804>
20402c1a:	852e                	mv	a0,a1
20402c1c:	c422                	sw	s0,8(sp)
20402c1e:	c606                	sw	ra,12(sp)
20402c20:	842e                	mv	s0,a1
20402c22:	2d3d                	jal	20403260 <strlen>
20402c24:	85a2                	mv	a1,s0
  return write(str);
}
20402c26:	4422                	lw	s0,8(sp)
20402c28:	40b2                	lw	ra,12(sp)
20402c2a:	862a                	mv	a2,a0
20402c2c:	834a                	mv	t1,s2
20402c2e:	8526                	mv	a0,s1
20402c30:	4902                	lw	s2,0(sp)
20402c32:	4492                	lw	s1,4(sp)
20402c34:	0141                	addi	sp,sp,16
20402c36:	8302                	jr	t1
20402c38:	4501                	li	a0,0
20402c3a:	8082                	ret

20402c3c <_ZN5Print7printlnEPKc>:
  n += println();
  return n;
}

size_t Print::println(const char c[])
{
20402c3c:	1141                	addi	sp,sp,-16
20402c3e:	c422                	sw	s0,8(sp)
20402c40:	c04a                	sw	s2,0(sp)
20402c42:	c606                	sw	ra,12(sp)
20402c44:	c226                	sw	s1,4(sp)
20402c46:	842a                	mv	s0,a0
      if (str == NULL) return 0;
20402c48:	411c                	lw	a5,0(a0)
20402c4a:	4901                	li	s2,0
20402c4c:	cd81                	beqz	a1,20402c64 <_ZN5Print7printlnEPKc+0x28>
      return write((const uint8_t *)str, strlen(str));
20402c4e:	0047a903          	lw	s2,4(a5)
20402c52:	852e                	mv	a0,a1
20402c54:	84ae                	mv	s1,a1
20402c56:	2529                	jal	20403260 <strlen>
20402c58:	862a                	mv	a2,a0
20402c5a:	85a6                	mv	a1,s1
20402c5c:	8522                	mv	a0,s0
20402c5e:	9902                	jalr	s2
20402c60:	401c                	lw	a5,0(s0)
20402c62:	892a                	mv	s2,a0
  return write(c);
20402c64:	439c                	lw	a5,0(a5)
20402c66:	45b5                	li	a1,13
20402c68:	8522                	mv	a0,s0
20402c6a:	9782                	jalr	a5
20402c6c:	401c                	lw	a5,0(s0)
20402c6e:	84aa                	mv	s1,a0
20402c70:	45a9                	li	a1,10
20402c72:	439c                	lw	a5,0(a5)
20402c74:	8522                	mv	a0,s0
  size_t n = print(c);
  n += println();
20402c76:	94ca                	add	s1,s1,s2
  return write(c);
20402c78:	9782                	jalr	a5
  return n;
}
20402c7a:	40b2                	lw	ra,12(sp)
20402c7c:	4422                	lw	s0,8(sp)
20402c7e:	9526                	add	a0,a0,s1
20402c80:	4902                	lw	s2,0(sp)
20402c82:	4492                	lw	s1,4(sp)
20402c84:	0141                	addi	sp,sp,16
20402c86:	8082                	ret

20402c88 <_ZN5Print11printNumberEmh>:
  return n;
}

// Private Methods /////////////////////////////////////////////////////////////
__attribute__((stack_erase))
size_t Print::printNumber(unsigned long n, uint8_t base) {
20402c88:	7139                	addi	sp,sp,-64
20402c8a:	da26                	sw	s1,52(sp)
20402c8c:	de06                	sw	ra,60(sp)
20402c8e:	dc22                	sw	s0,56(sp)
20402c90:	d84a                	sw	s2,48(sp)
  char buf[8 * sizeof(long) + 1]; // Assumes 8-bit chars plus zero byte.
  char *str = &buf[sizeof(buf) - 1];

  *str = '\0';
20402c92:	02010623          	sb	zero,44(sp)

  // prevent crash if called with base == 1
  if (base < 2) base = 10;
20402c96:	4785                	li	a5,1
size_t Print::printNumber(unsigned long n, uint8_t base) {
20402c98:	84aa                	mv	s1,a0
20402c9a:	872e                	mv	a4,a1
20402c9c:	8532                	mv	a0,a2
  if (base < 2) base = 10;
20402c9e:	00c7e463          	bltu	a5,a2,20402ca6 <_ZN5Print11printNumberEmh+0x1e>
20402ca2:	4529                	li	a0,10
20402ca4:	4629                	li	a2,10
20402ca6:	1060                	addi	s0,sp,44

  do {
    unsigned long m = n;
    n /= base;
    char c = m - base * n;
    *--str = c < 10 ? c + '0' : c + 'A' - 10;
20402ca8:	48a5                	li	a7,9
20402caa:	a809                	j	20402cbc <_ZN5Print11printNumberEmh+0x34>
20402cac:	0ff87793          	andi	a5,a6,255
20402cb0:	147d                	addi	s0,s0,-1
20402cb2:	00f40023          	sb	a5,0(s0)
  } while(n);
20402cb6:	02a76863          	bltu	a4,a0,20402ce6 <_ZN5Print11printNumberEmh+0x5e>
    n /= base;
20402cba:	872e                	mv	a4,a1
20402cbc:	02a755b3          	divu	a1,a4,a0
    char c = m - base * n;
20402cc0:	02b607b3          	mul	a5,a2,a1
20402cc4:	40f707b3          	sub	a5,a4,a5
20402cc8:	0ff7f793          	andi	a5,a5,255
    *--str = c < 10 ? c + '0' : c + 'A' - 10;
20402ccc:	03078813          	addi	a6,a5,48
20402cd0:	03778693          	addi	a3,a5,55
20402cd4:	fcf8fce3          	bleu	a5,a7,20402cac <_ZN5Print11printNumberEmh+0x24>
20402cd8:	0ff6f793          	andi	a5,a3,255
20402cdc:	147d                	addi	s0,s0,-1
20402cde:	00f40023          	sb	a5,0(s0)
  } while(n);
20402ce2:	fca77ce3          	bleu	a0,a4,20402cba <_ZN5Print11printNumberEmh+0x32>
20402ce6:	409c                	lw	a5,0(s1)
20402ce8:	8522                	mv	a0,s0
20402cea:	0047a903          	lw	s2,4(a5)
20402cee:	2b8d                	jal	20403260 <strlen>
20402cf0:	862a                	mv	a2,a0
20402cf2:	85a2                	mv	a1,s0
20402cf4:	8526                	mv	a0,s1
20402cf6:	9902                	jalr	s2

  return write(str);
}
20402cf8:	5462                	lw	s0,56(sp)
20402cfa:	50f2                	lw	ra,60(sp)
20402cfc:	54d2                	lw	s1,52(sp)
20402cfe:	5942                	lw	s2,48(sp)
20402d00:	838a                	mv	t2,sp
20402d02:	6121                	addi	sp,sp,64
20402d04:	00238663          	beq	t2,sp,20402d10 <_ZN5Print11printNumberEmh+0x88>
20402d08:	0003a023          	sw	zero,0(t2)
20402d0c:	0391                	addi	t2,t2,4
20402d0e:	bfdd                	j	20402d04 <_ZN5Print11printNumberEmh+0x7c>
20402d10:	8082                	ret

20402d12 <_ZN5Print5printEli>:
{
20402d12:	1141                	addi	sp,sp,-16
20402d14:	c422                	sw	s0,8(sp)
20402d16:	c226                	sw	s1,4(sp)
20402d18:	c606                	sw	ra,12(sp)
20402d1a:	c04a                	sw	s2,0(sp)
20402d1c:	84aa                	mv	s1,a0
20402d1e:	842e                	mv	s0,a1
  if (base == 0) {
20402d20:	ee01                	bnez	a2,20402d38 <_ZN5Print5printEli+0x26>
    return write(n);
20402d22:	411c                	lw	a5,0(a0)
}
20402d24:	4422                	lw	s0,8(sp)
20402d26:	40b2                	lw	ra,12(sp)
20402d28:	4492                	lw	s1,4(sp)
20402d2a:	4902                	lw	s2,0(sp)
    return write(n);
20402d2c:	0007a303          	lw	t1,0(a5)
20402d30:	0ff5f593          	andi	a1,a1,255
}
20402d34:	0141                	addi	sp,sp,16
    return write(n);
20402d36:	8302                	jr	t1
  } else if (base == 10) {
20402d38:	4829                	li	a6,10
20402d3a:	03061663          	bne	a2,a6,20402d66 <_ZN5Print5printEli+0x54>
    if (n < 0) {
20402d3e:	0205d663          	bgez	a1,20402d6a <_ZN5Print5printEli+0x58>
  return write(c);
20402d42:	411c                	lw	a5,0(a0)
20402d44:	02d00593          	li	a1,45
20402d48:	439c                	lw	a5,0(a5)
20402d4a:	9782                	jalr	a5
20402d4c:	892a                	mv	s2,a0
      n = -n;
20402d4e:	408005b3          	neg	a1,s0
      return printNumber(n, 10) + t;
20402d52:	8526                	mv	a0,s1
20402d54:	4629                	li	a2,10
20402d56:	3f0d                	jal	20402c88 <_ZN5Print11printNumberEmh>
}
20402d58:	40b2                	lw	ra,12(sp)
20402d5a:	4422                	lw	s0,8(sp)
      return printNumber(n, 10) + t;
20402d5c:	954a                	add	a0,a0,s2
}
20402d5e:	4492                	lw	s1,4(sp)
20402d60:	4902                	lw	s2,0(sp)
20402d62:	0141                	addi	sp,sp,16
20402d64:	8082                	ret
    return printNumber(n, base);
20402d66:	0ff67613          	andi	a2,a2,255
}
20402d6a:	4422                	lw	s0,8(sp)
20402d6c:	40b2                	lw	ra,12(sp)
20402d6e:	4492                	lw	s1,4(sp)
20402d70:	4902                	lw	s2,0(sp)
20402d72:	0141                	addi	sp,sp,16
    return printNumber(n, base);
20402d74:	bf11                	j	20402c88 <_ZN5Print11printNumberEmh>

20402d76 <_ZN5Print5printEii>:
  return print((long) n, base);
20402d76:	bf71                	j	20402d12 <_ZN5Print5printEli>

20402d78 <_ZN5Print5printEmi>:
  if (base == 0) return write(n);
20402d78:	e619                	bnez	a2,20402d86 <_ZN5Print5printEmi+0xe>
20402d7a:	4118                	lw	a4,0(a0)
20402d7c:	0ff5f593          	andi	a1,a1,255
20402d80:	00072303          	lw	t1,0(a4) # 10012000 <__stack_size+0x10011800>
20402d84:	8302                	jr	t1
  else return printNumber(n, base);
20402d86:	0ff67613          	andi	a2,a2,255
20402d8a:	bdfd                	j	20402c88 <_ZN5Print11printNumberEmh>

20402d8c <_ZN9UARTClasscvbEv>:
    int read(void);
    void flush(void);
    size_t write(const uint8_t c);
    using Print::write; // pull in write(str) and write(buf, size) from Print

    operator bool() {return (true);}; // UART always active
20402d8c:	4505                	li	a0,1
20402d8e:	8082                	ret

20402d90 <_ZN9UARTClass5beginEm>:
  GPIO_REG(GPIO_OUTPUT_XOR)&= ~(IOF0_UART0_MASK);
20402d90:	100127b7          	lui	a5,0x10012
20402d94:	43b4                	lw	a3,64(a5)
20402d96:	fffd0737          	lui	a4,0xfffd0
{
20402d9a:	1141                	addi	sp,sp,-16
  GPIO_REG(GPIO_OUTPUT_XOR)&= ~(IOF0_UART0_MASK);
20402d9c:	177d                	addi	a4,a4,-1
{
20402d9e:	c606                	sw	ra,12(sp)
  GPIO_REG(GPIO_OUTPUT_XOR)&= ~(IOF0_UART0_MASK);
20402da0:	8ef9                	and	a3,a3,a4
20402da2:	c3b4                	sw	a3,64(a5)
  GPIO_REG(GPIO_IOF_SEL)   &= ~(IOF0_UART0_MASK);
20402da4:	5fd4                	lw	a3,60(a5)
  GPIO_REG(GPIO_IOF_EN)    |= IOF0_UART0_MASK;
20402da6:	00030837          	lui	a6,0x30
  UART_REG(UART_REG_DIV) = F_CPU / bauds - 1;
20402daa:	00f42537          	lui	a0,0xf42
  GPIO_REG(GPIO_IOF_SEL)   &= ~(IOF0_UART0_MASK);
20402dae:	8f75                	and	a4,a4,a3
20402db0:	dfd8                	sw	a4,60(a5)
  GPIO_REG(GPIO_IOF_EN)    |= IOF0_UART0_MASK;
20402db2:	5f98                	lw	a4,56(a5)
  UART_REG(UART_REG_DIV) = F_CPU / bauds - 1;
20402db4:	862e                	mv	a2,a1
20402db6:	4681                	li	a3,0
  GPIO_REG(GPIO_IOF_EN)    |= IOF0_UART0_MASK;
20402db8:	01076733          	or	a4,a4,a6
20402dbc:	df98                	sw	a4,56(a5)
  UART_REG(UART_REG_DIV) = F_CPU / bauds - 1;
20402dbe:	40050513          	addi	a0,a0,1024 # f42400 <__stack_size+0xf41c00>
20402dc2:	4581                	li	a1,0
20402dc4:	7fc000ef          	jal	ra,204035c0 <__divdi3>
20402dc8:	100137b7          	lui	a5,0x10013
20402dcc:	157d                	addi	a0,a0,-1
20402dce:	cf88                	sw	a0,24(a5)
  UART_REG(UART_REG_TXCTRL) |= UART_TXEN;
20402dd0:	4798                	lw	a4,8(a5)
}
20402dd2:	40b2                	lw	ra,12(sp)
  UART_REG(UART_REG_TXCTRL) |= UART_TXEN;
20402dd4:	00176713          	ori	a4,a4,1
20402dd8:	c798                	sw	a4,8(a5)
  UART_REG(UART_REG_RXCTRL) |= UART_RXEN;
20402dda:	47d8                	lw	a4,12(a5)
20402ddc:	00176713          	ori	a4,a4,1
20402de0:	c7d8                	sw	a4,12(a5)
}
20402de2:	0141                	addi	sp,sp,16
20402de4:	8082                	ret

20402de6 <_ZN9UARTClass3endEv>:
  GPIO_REG(GPIO_IOF_EN)    &= ~IOF0_UART0_MASK;
20402de6:	100126b7          	lui	a3,0x10012
20402dea:	5e9c                	lw	a5,56(a3)
20402dec:	fffd0737          	lui	a4,0xfffd0
20402df0:	177d                	addi	a4,a4,-1
20402df2:	8ff9                	and	a5,a5,a4
20402df4:	de9c                	sw	a5,56(a3)
  UART_REG(UART_REG_TXCTRL) &= ~UART_TXEN;
20402df6:	100137b7          	lui	a5,0x10013
20402dfa:	4798                	lw	a4,8(a5)
20402dfc:	9b79                	andi	a4,a4,-2
20402dfe:	c798                	sw	a4,8(a5)
  UART_REG(UART_REG_RXCTRL) &= ~UART_RXEN;
20402e00:	47d8                	lw	a4,12(a5)
20402e02:	9b79                	andi	a4,a4,-2
20402e04:	c7d8                	sw	a4,12(a5)
}
20402e06:	8082                	ret

20402e08 <_ZN9UARTClass9availableEv>:
  if ((c = UART_REG(UART_REG_RXFIFO)) >= 0) {
20402e08:	100137b7          	lui	a5,0x10013
20402e0c:	43d8                	lw	a4,4(a5)
20402e0e:	02074463          	bltz	a4,20402e36 <_ZN9UARTClass9availableEv+0x2e>
    sio_rxbuf[sio_rxbuf_head++] = c;
20402e12:	01454783          	lbu	a5,20(a0)
20402e16:	0ff7f793          	andi	a5,a5,255
20402e1a:	00178693          	addi	a3,a5,1 # 10013001 <__stack_size+0x10012801>
20402e1e:	0ff6f693          	andi	a3,a3,255
20402e22:	00d50a23          	sb	a3,20(a0)
20402e26:	97aa                	add	a5,a5,a0
20402e28:	00e78b23          	sb	a4,22(a5)
    sio_rxbuf_head &= SIO_RXBUFMASK;
20402e2c:	01454783          	lbu	a5,20(a0)
20402e30:	8b9d                	andi	a5,a5,7
20402e32:	00f50a23          	sb	a5,20(a0)
  return (!(sio_rxbuf_head == sio_rxbuf_tail));
20402e36:	01454783          	lbu	a5,20(a0)
20402e3a:	01554503          	lbu	a0,21(a0)
20402e3e:	40a78533          	sub	a0,a5,a0
}
20402e42:	00a03533          	snez	a0,a0
20402e46:	8082                	ret

20402e48 <_ZN9UARTClass4peekEv>:
  if ((c = UART_REG(UART_REG_RXFIFO)) >= 0) {
20402e48:	100137b7          	lui	a5,0x10013
20402e4c:	43d8                	lw	a4,4(a5)
20402e4e:	02074463          	bltz	a4,20402e76 <_ZN9UARTClass4peekEv+0x2e>
    sio_rxbuf[sio_rxbuf_head++] = c;
20402e52:	01454783          	lbu	a5,20(a0)
20402e56:	0ff7f793          	andi	a5,a5,255
20402e5a:	00178693          	addi	a3,a5,1 # 10013001 <__stack_size+0x10012801>
20402e5e:	0ff6f693          	andi	a3,a3,255
20402e62:	00d50a23          	sb	a3,20(a0)
20402e66:	97aa                	add	a5,a5,a0
20402e68:	00e78b23          	sb	a4,22(a5)
    sio_rxbuf_head &= SIO_RXBUFMASK;
20402e6c:	01454783          	lbu	a5,20(a0)
20402e70:	8b9d                	andi	a5,a5,7
20402e72:	00f50a23          	sb	a5,20(a0)
  if (sio_rxbuf_tail == sio_rxbuf_head)
20402e76:	01554703          	lbu	a4,21(a0)
20402e7a:	01454783          	lbu	a5,20(a0)
20402e7e:	0ff7f793          	andi	a5,a5,255
20402e82:	00e78863          	beq	a5,a4,20402e92 <_ZN9UARTClass4peekEv+0x4a>
    return (sio_rxbuf[sio_rxbuf_tail]);
20402e86:	01554783          	lbu	a5,21(a0)
20402e8a:	953e                	add	a0,a0,a5
20402e8c:	01654503          	lbu	a0,22(a0)
20402e90:	8082                	ret
    return (-1);
20402e92:	557d                	li	a0,-1
}
20402e94:	8082                	ret

20402e96 <_ZN9UARTClass4readEv>:
{
20402e96:	87aa                	mv	a5,a0
  if ((c = UART_REG(UART_REG_RXFIFO)) >= 0) {
20402e98:	100135b7          	lui	a1,0x10013
20402e9c:	41d4                	lw	a3,4(a1)
20402e9e:	0206c463          	bltz	a3,20402ec6 <_ZN9UARTClass4readEv+0x30>
    sio_rxbuf[sio_rxbuf_head++] = c;
20402ea2:	0147c703          	lbu	a4,20(a5)
20402ea6:	0ff77713          	andi	a4,a4,255
20402eaa:	00170613          	addi	a2,a4,1 # fffd0001 <_sp+0x7ffcc001>
20402eae:	0ff67613          	andi	a2,a2,255
20402eb2:	00c78a23          	sb	a2,20(a5)
20402eb6:	973e                	add	a4,a4,a5
20402eb8:	00d70b23          	sb	a3,22(a4)
    sio_rxbuf_head &= SIO_RXBUFMASK;
20402ebc:	0147c703          	lbu	a4,20(a5)
20402ec0:	8b1d                	andi	a4,a4,7
20402ec2:	00e78a23          	sb	a4,20(a5)
    busy = (sio_rxbuf_head == sio_rxbuf_tail);
20402ec6:	0147c683          	lbu	a3,20(a5)
20402eca:	0157c703          	lbu	a4,21(a5)
20402ece:	0ff77713          	andi	a4,a4,255
  } while (blocking && busy);
20402ed2:	fcd705e3          	beq	a4,a3,20402e9c <_ZN9UARTClass4readEv+0x6>
  c = sio_rxbuf[sio_rxbuf_tail++];
20402ed6:	0157c703          	lbu	a4,21(a5)
20402eda:	0ff77713          	andi	a4,a4,255
20402ede:	00170693          	addi	a3,a4,1
20402ee2:	0ff6f693          	andi	a3,a3,255
20402ee6:	00d78aa3          	sb	a3,21(a5)
  sio_rxbuf_tail &= SIO_RXBUFMASK;
20402eea:	0157c683          	lbu	a3,21(a5)
  c = sio_rxbuf[sio_rxbuf_tail++];
20402eee:	973e                	add	a4,a4,a5
20402ef0:	01674503          	lbu	a0,22(a4)
  sio_rxbuf_tail &= SIO_RXBUFMASK;
20402ef4:	0076f713          	andi	a4,a3,7
20402ef8:	00e78aa3          	sb	a4,21(a5)
}
20402efc:	8082                	ret

20402efe <_ZN9UARTClass5flushEv>:
}
20402efe:	8082                	ret

20402f00 <_ZN9UARTClass5writeEh>:
  uint32_t busy = (*val) & 0x80000000;
20402f00:	100137b7          	lui	a5,0x10013
20402f04:	439c                	lw	a5,0(a5)
    while (*val & 0x80000000);
20402f06:	10013737          	lui	a4,0x10013
20402f0a:	431c                	lw	a5,0(a4)
20402f0c:	fe07cfe3          	bltz	a5,20402f0a <_ZN9UARTClass5writeEh+0xa>
  UART_REG(UART_REG_TXFIFO) = c;
20402f10:	c30c                	sw	a1,0(a4)
}
20402f12:	4505                	li	a0,1
20402f14:	8082                	ret

20402f16 <_Z10randomSeedm>:
}
#include "WMath.h"

extern void randomSeed( uint32_t dwSeed )
{
  if ( dwSeed != 0 )
20402f16:	e111                	bnez	a0,20402f1a <_Z10randomSeedm+0x4>
  {
    srand( dwSeed ) ;
  }
}
20402f18:	8082                	ret
    srand( dwSeed ) ;
20402f1a:	a49d                	j	20403180 <srand>

20402f1c <__cxa_pure_virtual>:
extern "C" void __cxa_deleted_virtual(void) __attribute__ ((__noreturn__));

void __cxa_pure_virtual(void) {
  // We might want to write some diagnostics to uart in this case
  //std::terminate();
  while (1)
20402f1c:	a001                	j	20402f1c <__cxa_pure_virtual>

20402f1e <_Z36freedom_e300_specific_initializationv>:
  write_csr(mtvec, &trap_entry);
20402f1e:	204037b7          	lui	a5,0x20403
20402f22:	f4478793          	addi	a5,a5,-188 # 20402f44 <trap_entry>
20402f26:	30579073          	csrw	mtvec,a5
  if (read_csr(misa) & (1 << ('F' - 'A'))) { // if F extension is present
20402f2a:	301027f3          	csrr	a5,misa
20402f2e:	0207f793          	andi	a5,a5,32
20402f32:	c791                	beqz	a5,20402f3e <_Z36freedom_e300_specific_initializationv+0x20>
    write_csr(mstatus, MSTATUS_FS); // allow FPU instructions without trapping
20402f34:	6799                	lui	a5,0x6
20402f36:	30079073          	csrw	mstatus,a5
    write_csr(fcsr, 0); // initialize rounding mode, undefined at reset
20402f3a:	00305073          	csrwi	fcsr,0
	PRCI_use_hfxosc((uint32_t) 1 );
20402f3e:	4505                	li	a0,1
20402f40:	a065                	j	20402fe8 <PRCI_use_hfxosc>
	...

20402f44 <trap_entry>:

  .section      .text.entry	
  .align 2
  .global trap_entry
trap_entry:
  addi sp, sp, -32*REGBYTES
20402f44:	7119                	addi	sp,sp,-128

  STORE x1, 1*REGBYTES(sp)
20402f46:	c206                	sw	ra,4(sp)
  STORE x2, 2*REGBYTES(sp)
20402f48:	c40a                	sw	sp,8(sp)
  STORE x3, 3*REGBYTES(sp)
20402f4a:	c60e                	sw	gp,12(sp)
  STORE x4, 4*REGBYTES(sp)
20402f4c:	c812                	sw	tp,16(sp)
  STORE x5, 5*REGBYTES(sp)
20402f4e:	ca16                	sw	t0,20(sp)
  STORE x6, 6*REGBYTES(sp)
20402f50:	cc1a                	sw	t1,24(sp)
  STORE x7, 7*REGBYTES(sp)
20402f52:	ce1e                	sw	t2,28(sp)
  STORE x8, 8*REGBYTES(sp)
20402f54:	d022                	sw	s0,32(sp)
  STORE x9, 9*REGBYTES(sp)
20402f56:	d226                	sw	s1,36(sp)
  STORE x10, 10*REGBYTES(sp)
20402f58:	d42a                	sw	a0,40(sp)
  STORE x11, 11*REGBYTES(sp)
20402f5a:	d62e                	sw	a1,44(sp)
  STORE x12, 12*REGBYTES(sp)
20402f5c:	d832                	sw	a2,48(sp)
  STORE x13, 13*REGBYTES(sp)
20402f5e:	da36                	sw	a3,52(sp)
  STORE x14, 14*REGBYTES(sp)
20402f60:	dc3a                	sw	a4,56(sp)
  STORE x15, 15*REGBYTES(sp)
20402f62:	de3e                	sw	a5,60(sp)
  STORE x16, 16*REGBYTES(sp)
20402f64:	c0c2                	sw	a6,64(sp)
  STORE x17, 17*REGBYTES(sp)
20402f66:	c2c6                	sw	a7,68(sp)
  STORE x18, 18*REGBYTES(sp)
20402f68:	c4ca                	sw	s2,72(sp)
  STORE x19, 19*REGBYTES(sp)
20402f6a:	c6ce                	sw	s3,76(sp)
  STORE x20, 20*REGBYTES(sp)
20402f6c:	c8d2                	sw	s4,80(sp)
  STORE x21, 21*REGBYTES(sp)
20402f6e:	cad6                	sw	s5,84(sp)
  STORE x22, 22*REGBYTES(sp)
20402f70:	ccda                	sw	s6,88(sp)
  STORE x23, 23*REGBYTES(sp)
20402f72:	cede                	sw	s7,92(sp)
  STORE x24, 24*REGBYTES(sp)
20402f74:	d0e2                	sw	s8,96(sp)
  STORE x25, 25*REGBYTES(sp)
20402f76:	d2e6                	sw	s9,100(sp)
  STORE x26, 26*REGBYTES(sp)
20402f78:	d4ea                	sw	s10,104(sp)
  STORE x27, 27*REGBYTES(sp)
20402f7a:	d6ee                	sw	s11,108(sp)
  STORE x28, 28*REGBYTES(sp)
20402f7c:	d8f2                	sw	t3,112(sp)
  STORE x29, 29*REGBYTES(sp)
20402f7e:	daf6                	sw	t4,116(sp)
  STORE x30, 30*REGBYTES(sp)
20402f80:	dcfa                	sw	t5,120(sp)
  STORE x31, 31*REGBYTES(sp)
20402f82:	defe                	sw	t6,124(sp)

  csrr a0, mcause
20402f84:	34202573          	csrr	a0,mcause
  csrr a1, mepc
20402f88:	341025f3          	csrr	a1,mepc
  mv a2, sp
20402f8c:	860a                	mv	a2,sp
  call handle_trap
20402f8e:	2899                	jal	20402fe4 <handle_trap>
  csrw mepc, a0
20402f90:	34151073          	csrw	mepc,a0

  # Remain in M-mode after mret
  li t0, MSTATUS_MPP
20402f94:	000022b7          	lui	t0,0x2
20402f98:	80028293          	addi	t0,t0,-2048 # 1800 <__stack_size+0x1000>
  csrs mstatus, t0
20402f9c:	3002a073          	csrs	mstatus,t0

  LOAD x1, 1*REGBYTES(sp)
20402fa0:	4092                	lw	ra,4(sp)
  LOAD x2, 2*REGBYTES(sp)
20402fa2:	4122                	lw	sp,8(sp)
  LOAD x3, 3*REGBYTES(sp)
20402fa4:	41b2                	lw	gp,12(sp)
  LOAD x4, 4*REGBYTES(sp)
20402fa6:	4242                	lw	tp,16(sp)
  LOAD x5, 5*REGBYTES(sp)
20402fa8:	42d2                	lw	t0,20(sp)
  LOAD x6, 6*REGBYTES(sp)
20402faa:	4362                	lw	t1,24(sp)
  LOAD x7, 7*REGBYTES(sp)
20402fac:	43f2                	lw	t2,28(sp)
  LOAD x8, 8*REGBYTES(sp)
20402fae:	5402                	lw	s0,32(sp)
  LOAD x9, 9*REGBYTES(sp)
20402fb0:	5492                	lw	s1,36(sp)
  LOAD x10, 10*REGBYTES(sp)
20402fb2:	5522                	lw	a0,40(sp)
  LOAD x11, 11*REGBYTES(sp)
20402fb4:	55b2                	lw	a1,44(sp)
  LOAD x12, 12*REGBYTES(sp)
20402fb6:	5642                	lw	a2,48(sp)
  LOAD x13, 13*REGBYTES(sp)
20402fb8:	56d2                	lw	a3,52(sp)
  LOAD x14, 14*REGBYTES(sp)
20402fba:	5762                	lw	a4,56(sp)
  LOAD x15, 15*REGBYTES(sp)
20402fbc:	57f2                	lw	a5,60(sp)
  LOAD x16, 16*REGBYTES(sp)
20402fbe:	4806                	lw	a6,64(sp)
  LOAD x17, 17*REGBYTES(sp)
20402fc0:	4896                	lw	a7,68(sp)
  LOAD x18, 18*REGBYTES(sp)
20402fc2:	4926                	lw	s2,72(sp)
  LOAD x19, 19*REGBYTES(sp)
20402fc4:	49b6                	lw	s3,76(sp)
  LOAD x20, 20*REGBYTES(sp)
20402fc6:	4a46                	lw	s4,80(sp)
  LOAD x21, 21*REGBYTES(sp)
20402fc8:	4ad6                	lw	s5,84(sp)
  LOAD x22, 22*REGBYTES(sp)
20402fca:	4b66                	lw	s6,88(sp)
  LOAD x23, 23*REGBYTES(sp)
20402fcc:	4bf6                	lw	s7,92(sp)
  LOAD x24, 24*REGBYTES(sp)
20402fce:	5c06                	lw	s8,96(sp)
  LOAD x25, 25*REGBYTES(sp)
20402fd0:	5c96                	lw	s9,100(sp)
  LOAD x26, 26*REGBYTES(sp)
20402fd2:	5d26                	lw	s10,104(sp)
  LOAD x27, 27*REGBYTES(sp)
20402fd4:	5db6                	lw	s11,108(sp)
  LOAD x28, 28*REGBYTES(sp)
20402fd6:	5e46                	lw	t3,112(sp)
  LOAD x29, 29*REGBYTES(sp)
20402fd8:	5ed6                	lw	t4,116(sp)
  LOAD x30, 30*REGBYTES(sp)
20402fda:	5f66                	lw	t5,120(sp)
  LOAD x31, 31*REGBYTES(sp)
20402fdc:	5ff6                	lw	t6,124(sp)

  addi sp, sp, 32*REGBYTES
20402fde:	6109                	addi	sp,sp,128
  mret
20402fe0:	30200073          	mret

20402fe4 <handle_trap>:

.weak handle_trap
handle_trap:
1:
  j 1b
20402fe4:	a001                	j	20402fe4 <handle_trap>
	...

20402fe8 <PRCI_use_hfxosc>:
void PRCI_use_pll(int refsel, int bypass,
			 int r, int f, int q, int finaldiv,
			 int hfroscdiv, int hfrosctrim)
{
  // Ensure that we aren't running off the PLL before we mess with it.
  if (PRCI_REG(PRCI_PLLCFG) & PLL_SEL(1)) {
20402fe8:	100087b7          	lui	a5,0x10008
20402fec:	4798                	lw	a4,8(a5)
20402fee:	00f71693          	slli	a3,a4,0xf
20402ff2:	0206d063          	bgez	a3,20403012 <PRCI_use_hfxosc+0x2a>
  PRCI_REG(PRCI_HFROSCCFG) = (ROSC_DIV(div) | ROSC_TRIM(trim) | ROSC_EN(1));
20402ff6:	40100737          	lui	a4,0x40100
20402ffa:	0711                	addi	a4,a4,4
20402ffc:	c398                	sw	a4,0(a5)
  while ((PRCI_REG(PRCI_HFROSCCFG) & ROSC_RDY(1)) == 0);
20402ffe:	10008737          	lui	a4,0x10008
20403002:	431c                	lw	a5,0(a4)
20403004:	fe07dfe3          	bgez	a5,20403002 <PRCI_use_hfxosc+0x1a>
  PRCI_REG(PRCI_PLLCFG) &= ~PLL_SEL(1);
20403008:	471c                	lw	a5,8(a4)
2040300a:	76c1                	lui	a3,0xffff0
2040300c:	16fd                	addi	a3,a3,-1
2040300e:	8ff5                	and	a5,a5,a3
20403010:	c71c                	sw	a5,8(a4)
  
  if (bypass) {
    // Bypass
    config_value |= PLL_BYPASS(1);

    PRCI_REG(PRCI_PLLCFG) = config_value;
20403012:	100087b7          	lui	a5,0x10008
20403016:	00060737          	lui	a4,0x60
2040301a:	c798                	sw	a4,8(a5)

    // If we don't have an HFXTAL, this doesn't really matter.
    // Set our Final output divide to divide-by-1:
    PRCI_REG(PRCI_PLLDIV) = (PLL_FINAL_DIV_BY_1(1) | PLL_FINAL_DIV(0));
2040301c:	10000713          	li	a4,256
20403020:	c7d8                	sw	a4,12(a5)
    while ((PRCI_REG(PRCI_PLLCFG) & PLL_LOCK(1)) == 0);

  }

  // Switch over to PLL Clock source
  PRCI_REG(PRCI_PLLCFG) |= PLL_SEL(1);
20403022:	4798                	lw	a4,8(a5)
20403024:	66c1                	lui	a3,0x10
20403026:	8f55                	or	a4,a4,a3
20403028:	c798                	sw	a4,8(a5)

  // If we're running off HFXOSC, turn off the HFROSC to
  // save power.
  if (refsel) {
    PRCI_REG(PRCI_HFROSCCFG) &= ~ROSC_EN(1);
2040302a:	4398                	lw	a4,0(a5)
2040302c:	c00006b7          	lui	a3,0xc0000
20403030:	16fd                	addi	a3,a3,-1
20403032:	8f75                	and	a4,a4,a3
20403034:	c398                	sw	a4,0(a5)
	       0, // PLL settings don't matter
	       0, // PLL settings don't matter
	       finaldiv,
	       -1,
	       -1);
}
20403036:	8082                	ret

20403038 <atexit>:
 */

int
atexit (void (*fn) (void))
{
  return __register_exitproc (__et_atexit, fn, NULL, NULL);
20403038:	00050593          	mv	a1,a0
2040303c:	00000693          	li	a3,0
20403040:	00000613          	li	a2,0
20403044:	00000513          	li	a0,0
20403048:	3700006f          	j	204033b8 <__register_exitproc>

2040304c <exit>:
 * Exit, flushing stdio buffers if necessary.
 */

void
exit (int code)
{
2040304c:	ff010113          	addi	sp,sp,-16
#ifdef _LITE_EXIT
  /* Refer to comments in __atexit.c for more details of lite exit.  */
  void __call_exitprocs (int, void *) __attribute__((weak));
  if (__call_exitprocs)
#endif
    __call_exitprocs (code, NULL);
20403050:	00000593          	li	a1,0
{
20403054:	00812423          	sw	s0,8(sp)
20403058:	00112623          	sw	ra,12(sp)
2040305c:	00050413          	mv	s0,a0
    __call_exitprocs (code, NULL);
20403060:	3f4000ef          	jal	ra,20403454 <__call_exitprocs>

  if (_GLOBAL_REENT->__cleanup)
20403064:	800007b7          	lui	a5,0x80000
20403068:	4287a503          	lw	a0,1064(a5) # 80000428 <_sp+0xffffc428>
2040306c:	03c52783          	lw	a5,60(a0)
20403070:	00078463          	beqz	a5,20403078 <exit+0x2c>
    (*_GLOBAL_REENT->__cleanup) (_GLOBAL_REENT);
20403074:	000780e7          	jalr	a5
  _exit (code);
20403078:	00040513          	mv	a0,s0
2040307c:	4f4000ef          	jal	ra,20403570 <_exit>

20403080 <__libc_fini_array>:
extern void _fini (void);

/* Run all the cleanup routines.  */
void
__libc_fini_array (void)
{
20403080:	ff010113          	addi	sp,sp,-16
20403084:	00812423          	sw	s0,8(sp)
20403088:	00912223          	sw	s1,4(sp)
  size_t count;
  size_t i;
  
  count = __fini_array_end - __fini_array_start;
2040308c:	20404437          	lui	s0,0x20404
20403090:	204044b7          	lui	s1,0x20404
20403094:	c5c48793          	addi	a5,s1,-932 # 20403c5c <__fini_array_end>
20403098:	c5c40413          	addi	s0,s0,-932 # 20403c5c <__fini_array_end>
2040309c:	40f40433          	sub	s0,s0,a5
{
204030a0:	00112623          	sw	ra,12(sp)
  count = __fini_array_end - __fini_array_start;
204030a4:	40245413          	srai	s0,s0,0x2
  for (i = count; i > 0; i--)
204030a8:	02040263          	beqz	s0,204030cc <__libc_fini_array+0x4c>
204030ac:	00241493          	slli	s1,s0,0x2
204030b0:	ffc48493          	addi	s1,s1,-4
204030b4:	00f484b3          	add	s1,s1,a5
    __fini_array_start[i-1] ();
204030b8:	0004a783          	lw	a5,0(s1)
204030bc:	fff40413          	addi	s0,s0,-1
204030c0:	ffc48493          	addi	s1,s1,-4
204030c4:	000780e7          	jalr	a5
  for (i = count; i > 0; i--)
204030c8:	fe0418e3          	bnez	s0,204030b8 <__libc_fini_array+0x38>

  _fini ();
}
204030cc:	00812403          	lw	s0,8(sp)
204030d0:	00c12083          	lw	ra,12(sp)
204030d4:	00412483          	lw	s1,4(sp)
204030d8:	01010113          	addi	sp,sp,16
  _fini ();
204030dc:	f99fc06f          	j	20400074 <_fini>

204030e0 <__libc_init_array>:
extern void _init (void);

/* Iterate over all the init routines.  */
void
__libc_init_array (void)
{
204030e0:	ff010113          	addi	sp,sp,-16
204030e4:	00812423          	sw	s0,8(sp)
204030e8:	01212023          	sw	s2,0(sp)
  size_t count;
  size_t i;

  count = __preinit_array_end - __preinit_array_start;
204030ec:	20404437          	lui	s0,0x20404
204030f0:	20404937          	lui	s2,0x20404
204030f4:	c5440793          	addi	a5,s0,-940 # 20403c54 <__init_array_start>
204030f8:	c5490913          	addi	s2,s2,-940 # 20403c54 <__init_array_start>
204030fc:	40f90933          	sub	s2,s2,a5
{
20403100:	00112623          	sw	ra,12(sp)
20403104:	00912223          	sw	s1,4(sp)
  count = __preinit_array_end - __preinit_array_start;
20403108:	40295913          	srai	s2,s2,0x2
  for (i = 0; i < count; i++)
2040310c:	02090063          	beqz	s2,2040312c <__libc_init_array+0x4c>
20403110:	c5440413          	addi	s0,s0,-940
20403114:	00000493          	li	s1,0
    __preinit_array_start[i] ();
20403118:	00042783          	lw	a5,0(s0)
  for (i = 0; i < count; i++)
2040311c:	00148493          	addi	s1,s1,1
20403120:	00440413          	addi	s0,s0,4
    __preinit_array_start[i] ();
20403124:	000780e7          	jalr	a5
  for (i = 0; i < count; i++)
20403128:	fe9918e3          	bne	s2,s1,20403118 <__libc_init_array+0x38>

  _init ();
2040312c:	f49fc0ef          	jal	ra,20400074 <_fini>

  count = __init_array_end - __init_array_start;
20403130:	20404437          	lui	s0,0x20404
20403134:	20404937          	lui	s2,0x20404
20403138:	c5440793          	addi	a5,s0,-940 # 20403c54 <__init_array_start>
2040313c:	c5c90913          	addi	s2,s2,-932 # 20403c5c <__fini_array_end>
20403140:	40f90933          	sub	s2,s2,a5
20403144:	40295913          	srai	s2,s2,0x2
  for (i = 0; i < count; i++)
20403148:	02090063          	beqz	s2,20403168 <__libc_init_array+0x88>
2040314c:	c5440413          	addi	s0,s0,-940
20403150:	00000493          	li	s1,0
    __init_array_start[i] ();
20403154:	00042783          	lw	a5,0(s0)
  for (i = 0; i < count; i++)
20403158:	00148493          	addi	s1,s1,1
2040315c:	00440413          	addi	s0,s0,4
    __init_array_start[i] ();
20403160:	000780e7          	jalr	a5
  for (i = 0; i < count; i++)
20403164:	fe9918e3          	bne	s2,s1,20403154 <__libc_init_array+0x74>
}
20403168:	00c12083          	lw	ra,12(sp)
2040316c:	00812403          	lw	s0,8(sp)
20403170:	00412483          	lw	s1,4(sp)
20403174:	00012903          	lw	s2,0(sp)
20403178:	01010113          	addi	sp,sp,16
2040317c:	00008067          	ret

20403180 <srand>:
srand (unsigned int seed)
{
  struct _reent *reent = _REENT;

  _REENT_CHECK_RAND48(reent);
  _REENT_RAND_NEXT(reent) = seed;
20403180:	800007b7          	lui	a5,0x80000
20403184:	4347a783          	lw	a5,1076(a5) # 80000434 <_sp+0xffffc434>
20403188:	0aa7a423          	sw	a0,168(a5)
2040318c:	0a07a623          	sw	zero,172(a5)
}
20403190:	00008067          	ret

20403194 <rand>:

int
rand (void)
{
  struct _reent *reent = _REENT;
20403194:	800007b7          	lui	a5,0x80000
20403198:	4347a583          	lw	a1,1076(a5) # 80000434 <_sp+0xffffc434>
  /* This multiplier was obtained from Knuth, D.E., "The Art of
     Computer Programming," Vol 2, Seminumerical Algorithms, Third
     Edition, Addison-Wesley, 1998, p. 106 (line 26) & p. 108 */
  _REENT_CHECK_RAND48(reent);
  _REENT_RAND_NEXT(reent) =
     _REENT_RAND_NEXT(reent) * __extension__ 6364136223846793005LL + 1;
2040319c:	4c958637          	lui	a2,0x4c958
204031a0:	f2d60613          	addi	a2,a2,-211 # 4c957f2d <__fini_array_end+0x2c5542d1>
204031a4:	0a85a703          	lw	a4,168(a1) # 100130a8 <__stack_size+0x100128a8>
204031a8:	0ac5a503          	lw	a0,172(a1)
204031ac:	02c707b3          	mul	a5,a4,a2
204031b0:	00178693          	addi	a3,a5,1
204031b4:	00f6b7b3          	sltu	a5,a3,a5
  _REENT_RAND_NEXT(reent) =
204031b8:	0ad5a423          	sw	a3,168(a1)
     _REENT_RAND_NEXT(reent) * __extension__ 6364136223846793005LL + 1;
204031bc:	5851f6b7          	lui	a3,0x5851f
204031c0:	42d68693          	addi	a3,a3,1069 # 5851f42d <__fini_array_end+0x3811b7d1>
204031c4:	02d706b3          	mul	a3,a4,a3
204031c8:	02c50533          	mul	a0,a0,a2
204031cc:	02c73733          	mulhu	a4,a4,a2
204031d0:	00d50533          	add	a0,a0,a3
204031d4:	00e50533          	add	a0,a0,a4
204031d8:	00a787b3          	add	a5,a5,a0
  return (int)((_REENT_RAND_NEXT(reent) >> 32) & RAND_MAX);
}
204031dc:	80000537          	lui	a0,0x80000
204031e0:	fff54513          	not	a0,a0
  _REENT_RAND_NEXT(reent) =
204031e4:	0af5a623          	sw	a5,172(a1)
}
204031e8:	00a7f533          	and	a0,a5,a0
204031ec:	00008067          	ret

204031f0 <srandom>:
srandom (unsigned int seed)
{
  struct _reent *reent = _REENT;

  _REENT_CHECK_RAND48(reent);
  _REENT_RAND_NEXT(reent) = seed;
204031f0:	800007b7          	lui	a5,0x80000
204031f4:	4347a783          	lw	a5,1076(a5) # 80000434 <_sp+0xffffc434>
204031f8:	0aa7a423          	sw	a0,168(a5)
204031fc:	0a07a623          	sw	zero,172(a5)
}
20403200:	00008067          	ret

20403204 <random>:

long int
random (void)
{
  struct _reent *reent = _REENT;
20403204:	800007b7          	lui	a5,0x80000
20403208:	4347a583          	lw	a1,1076(a5) # 80000434 <_sp+0xffffc434>
  /* This multiplier was obtained from Knuth, D.E., "The Art of
     Computer Programming," Vol 2, Seminumerical Algorithms, Third
     Edition, Addison-Wesley, 1998, p. 106 (line 26) & p. 108 */
  _REENT_CHECK_RAND48(reent);
  _REENT_RAND_NEXT(reent) =
     _REENT_RAND_NEXT(reent) * __extension__ 6364136223846793005LL + 1;
2040320c:	4c958637          	lui	a2,0x4c958
20403210:	f2d60613          	addi	a2,a2,-211 # 4c957f2d <__fini_array_end+0x2c5542d1>
20403214:	0a85a703          	lw	a4,168(a1)
20403218:	0ac5a503          	lw	a0,172(a1)
2040321c:	02c707b3          	mul	a5,a4,a2
20403220:	00178693          	addi	a3,a5,1
20403224:	00f6b7b3          	sltu	a5,a3,a5
  _REENT_RAND_NEXT(reent) =
20403228:	0ad5a423          	sw	a3,168(a1)
     _REENT_RAND_NEXT(reent) * __extension__ 6364136223846793005LL + 1;
2040322c:	5851f6b7          	lui	a3,0x5851f
20403230:	42d68693          	addi	a3,a3,1069 # 5851f42d <__fini_array_end+0x3811b7d1>
20403234:	02d706b3          	mul	a3,a4,a3
20403238:	02c50533          	mul	a0,a0,a2
2040323c:	02c73733          	mulhu	a4,a4,a2
20403240:	00d50533          	add	a0,a0,a3
20403244:	00e50533          	add	a0,a0,a4
20403248:	00a787b3          	add	a5,a5,a0
  return (long int)((_REENT_RAND_NEXT(reent) >> 32) & RAND_MAX);
}
2040324c:	80000537          	lui	a0,0x80000
20403250:	fff54513          	not	a0,a0
  _REENT_RAND_NEXT(reent) =
20403254:	0af5a623          	sw	a5,172(a1)
}
20403258:	00a7f533          	and	a0,a5,a0
2040325c:	00008067          	ret

20403260 <strlen>:
#if defined(PREFER_SIZE_OVER_SPEED) || defined(__OPTIMIZE_SIZE__)
  while (*str++)
    ;
  return str - start - 1;
#else
  if (__builtin_expect ((uintptr_t)str & (sizeof (long) - 1), 0)) do
20403260:	00357793          	andi	a5,a0,3
20403264:	00050713          	mv	a4,a0
20403268:	04079c63          	bnez	a5,204032c0 <strlen+0x60>
static __inline unsigned long __libc_detect_null(unsigned long w)
{
  unsigned long mask = 0x7f7f7f7f;
  if (sizeof (long) == 8)
    mask = ((mask << 16) << 16) | mask;
  return ~(((w & mask) + mask) | w | mask);
2040326c:	7f7f86b7          	lui	a3,0x7f7f8
20403270:	f7f68693          	addi	a3,a3,-129 # 7f7f7f7f <__fini_array_end+0x5f3f4323>
      if (!ch)
	return str - start - 1;
    } while ((uintptr_t)str & (sizeof (long) - 1));

  unsigned long *ls = (unsigned long *)str;
  while (!__libc_detect_null (*ls++))
20403274:	fff00593          	li	a1,-1
20403278:	00470713          	addi	a4,a4,4 # 60004 <__stack_size+0x5f804>
2040327c:	ffc72603          	lw	a2,-4(a4)
20403280:	00d677b3          	and	a5,a2,a3
20403284:	00d787b3          	add	a5,a5,a3
20403288:	00c7e7b3          	or	a5,a5,a2
2040328c:	00d7e7b3          	or	a5,a5,a3
20403290:	feb784e3          	beq	a5,a1,20403278 <strlen+0x18>

  str = (const char *)ls;
  size_t ret = str - start, sl = sizeof (long);

  char c0 = str[0 - sl], c1 = str[1 - sl], c2 = str[2 - sl], c3 = str[3 - sl];
  if (c0 == 0)            return ret + 0 - sl;
20403294:	ffc74683          	lbu	a3,-4(a4)
  size_t ret = str - start, sl = sizeof (long);
20403298:	40a707b3          	sub	a5,a4,a0
  char c0 = str[0 - sl], c1 = str[1 - sl], c2 = str[2 - sl], c3 = str[3 - sl];
2040329c:	ffd74603          	lbu	a2,-3(a4)
204032a0:	ffe74503          	lbu	a0,-2(a4)
  if (c0 == 0)            return ret + 0 - sl;
204032a4:	04068063          	beqz	a3,204032e4 <strlen+0x84>
  if (c1 == 0)            return ret + 1 - sl;
204032a8:	02060a63          	beqz	a2,204032dc <strlen+0x7c>
  if (c2 == 0)            return ret + 2 - sl;
204032ac:	00a03533          	snez	a0,a0
204032b0:	00f50533          	add	a0,a0,a5
204032b4:	ffe50513          	addi	a0,a0,-2 # 7ffffffe <_sp+0xffffbffe>
  if (c1 == 0)            return ret + 5 - sl;
  if (c2 == 0)            return ret + 6 - sl;

  return ret + 7 - sl;
#endif /* not PREFER_SIZE_OVER_SPEED */
}
204032b8:	00008067          	ret
    } while ((uintptr_t)str & (sizeof (long) - 1));
204032bc:	fa0688e3          	beqz	a3,2040326c <strlen+0xc>
      char ch = *str;
204032c0:	00074783          	lbu	a5,0(a4)
      str++;
204032c4:	00170713          	addi	a4,a4,1
    } while ((uintptr_t)str & (sizeof (long) - 1));
204032c8:	00377693          	andi	a3,a4,3
      if (!ch)
204032cc:	fe0798e3          	bnez	a5,204032bc <strlen+0x5c>
	return str - start - 1;
204032d0:	40a70733          	sub	a4,a4,a0
204032d4:	fff70513          	addi	a0,a4,-1
204032d8:	00008067          	ret
  if (c1 == 0)            return ret + 1 - sl;
204032dc:	ffd78513          	addi	a0,a5,-3
204032e0:	00008067          	ret
  if (c0 == 0)            return ret + 0 - sl;
204032e4:	ffc78513          	addi	a0,a5,-4
204032e8:	00008067          	ret

204032ec <strncpy>:
  const char *src = src0;
  long *aligned_dst;
  const long *aligned_src;

  /* If SRC and DEST is aligned and count large enough, then copy words.  */
  if (!UNALIGNED (src, dst) && !TOO_SMALL (count))
204032ec:	00a5e7b3          	or	a5,a1,a0
204032f0:	0037f793          	andi	a5,a5,3
204032f4:	06079a63          	bnez	a5,20403368 <strncpy+0x7c>
204032f8:	00300793          	li	a5,3
    {
      aligned_dst = (long*)dst;
204032fc:	00050713          	mv	a4,a0
  if (!UNALIGNED (src, dst) && !TOO_SMALL (count))
20403300:	06c7e863          	bltu	a5,a2,20403370 <strncpy+0x84>

      dst = (char*)aligned_dst;
      src = (char*)aligned_src;
    }

  while (count > 0)
20403304:	06060063          	beqz	a2,20403364 <strncpy+0x78>
    {
      --count;
      if ((*dst++ = *src++) == '\0')
20403308:	0005c803          	lbu	a6,0(a1)
      --count;
2040330c:	fff60693          	addi	a3,a2,-1
      if ((*dst++ = *src++) == '\0')
20403310:	00158593          	addi	a1,a1,1
20403314:	01070023          	sb	a6,0(a4)
20403318:	00170793          	addi	a5,a4,1
2040331c:	02080863          	beqz	a6,2040334c <strncpy+0x60>
20403320:	00c70633          	add	a2,a4,a2
20403324:	00d706b3          	add	a3,a4,a3
20403328:	0140006f          	j	2040333c <strncpy+0x50>
2040332c:	fff5c703          	lbu	a4,-1(a1)
20403330:	00178793          	addi	a5,a5,1
20403334:	fee78fa3          	sb	a4,-1(a5)
20403338:	00070c63          	beqz	a4,20403350 <strncpy+0x64>
2040333c:	00158593          	addi	a1,a1,1
20403340:	40f68833          	sub	a6,a3,a5
  while (count > 0)
20403344:	fec794e3          	bne	a5,a2,2040332c <strncpy+0x40>
20403348:	00008067          	ret
      --count;
2040334c:	00068813          	mv	a6,a3
20403350:	01078733          	add	a4,a5,a6
	break;
    }

  while (count-- > 0)
20403354:	06080063          	beqz	a6,204033b4 <strncpy+0xc8>
    *dst++ = '\0';
20403358:	00178793          	addi	a5,a5,1
2040335c:	fe078fa3          	sb	zero,-1(a5)
  while (count-- > 0)
20403360:	fee79ce3          	bne	a5,a4,20403358 <strncpy+0x6c>

  return dst0;
#endif /* not PREFER_SIZE_OVER_SPEED */
}
20403364:	00008067          	ret
  char *dst = dst0;
20403368:	00050713          	mv	a4,a0
2040336c:	f99ff06f          	j	20403304 <strncpy+0x18>
      while (count >= sizeof (long int) && !DETECTNULL(*aligned_src))
20403370:	feff0337          	lui	t1,0xfeff0
20403374:	808088b7          	lui	a7,0x80808
20403378:	eff30313          	addi	t1,t1,-257 # fefefeff <_sp+0x7efebeff>
2040337c:	08088893          	addi	a7,a7,128 # 80808080 <_sp+0x804080>
20403380:	00300e13          	li	t3,3
20403384:	0005a683          	lw	a3,0(a1)
20403388:	006687b3          	add	a5,a3,t1
2040338c:	fff6c813          	not	a6,a3
20403390:	0107f7b3          	and	a5,a5,a6
20403394:	0117f7b3          	and	a5,a5,a7
20403398:	f60798e3          	bnez	a5,20403308 <strncpy+0x1c>
	  *aligned_dst++ = *aligned_src++;
2040339c:	00470713          	addi	a4,a4,4
	  count -= sizeof (long int);
204033a0:	ffc60613          	addi	a2,a2,-4
	  *aligned_dst++ = *aligned_src++;
204033a4:	fed72e23          	sw	a3,-4(a4)
204033a8:	00458593          	addi	a1,a1,4
      while (count >= sizeof (long int) && !DETECTNULL(*aligned_src))
204033ac:	fcce6ce3          	bltu	t3,a2,20403384 <strncpy+0x98>
204033b0:	f55ff06f          	j	20403304 <strncpy+0x18>
204033b4:	00008067          	ret

204033b8 <__register_exitproc>:

#ifndef __SINGLE_THREAD__
  __lock_acquire_recursive(__atexit_recursive_mutex);
#endif

  p = _GLOBAL_ATEXIT;
204033b8:	800007b7          	lui	a5,0x80000
204033bc:	4287a703          	lw	a4,1064(a5) # 80000428 <_sp+0xffffc428>
204033c0:	14872783          	lw	a5,328(a4)
  if (p == NULL)
204033c4:	04078c63          	beqz	a5,2040341c <__register_exitproc+0x64>
      extern struct _on_exit_args * const __on_exit_args _ATTRIBUTE ((weak));
      if (&__on_exit_args != NULL)
	p->_on_exit_args_ptr = __on_exit_args;
#endif	/* def _REENT_SMALL */
    }
  if (p->_ind >= _ATEXIT_SIZE)
204033c8:	0047a703          	lw	a4,4(a5)
204033cc:	01f00813          	li	a6,31
204033d0:	06e84e63          	blt	a6,a4,2040344c <__register_exitproc+0x94>
      p->_on_exit_args_ptr = NULL;
#endif
#endif
    }

  if (type != __et_atexit)
204033d4:	00271813          	slli	a6,a4,0x2
204033d8:	02050663          	beqz	a0,20403404 <__register_exitproc+0x4c>
#endif
	}
#else
      args = &p->_on_exit_args;
#endif
      args->_fnargs[p->_ind] = arg;
204033dc:	01078333          	add	t1,a5,a6
204033e0:	08c32423          	sw	a2,136(t1)
      args->_fntypes |= (1 << p->_ind);
204033e4:	1887a883          	lw	a7,392(a5)
204033e8:	00100613          	li	a2,1
204033ec:	00e61633          	sll	a2,a2,a4
204033f0:	00c8e8b3          	or	a7,a7,a2
204033f4:	1917a423          	sw	a7,392(a5)
      args->_dso_handle[p->_ind] = d;
204033f8:	10d32423          	sw	a3,264(t1)
      if (type == __et_cxa)
204033fc:	00200693          	li	a3,2
20403400:	02d50463          	beq	a0,a3,20403428 <__register_exitproc+0x70>
	args->_is_cxa |= (1 << p->_ind);
    }
  p->_fns[p->_ind++] = fn;
20403404:	00170713          	addi	a4,a4,1
20403408:	00e7a223          	sw	a4,4(a5)
2040340c:	010787b3          	add	a5,a5,a6
20403410:	00b7a423          	sw	a1,8(a5)
#ifndef __SINGLE_THREAD__
  __lock_release_recursive(__atexit_recursive_mutex);
#endif
  return 0;
20403414:	00000513          	li	a0,0
20403418:	00008067          	ret
      _GLOBAL_ATEXIT = p = _GLOBAL_ATEXIT0;
2040341c:	14c70793          	addi	a5,a4,332
20403420:	14f72423          	sw	a5,328(a4)
20403424:	fa5ff06f          	j	204033c8 <__register_exitproc+0x10>
	args->_is_cxa |= (1 << p->_ind);
20403428:	18c7a683          	lw	a3,396(a5)
  p->_fns[p->_ind++] = fn;
2040342c:	00170713          	addi	a4,a4,1
20403430:	00e7a223          	sw	a4,4(a5)
	args->_is_cxa |= (1 << p->_ind);
20403434:	00c6e633          	or	a2,a3,a2
20403438:	18c7a623          	sw	a2,396(a5)
  p->_fns[p->_ind++] = fn;
2040343c:	010787b3          	add	a5,a5,a6
20403440:	00b7a423          	sw	a1,8(a5)
  return 0;
20403444:	00000513          	li	a0,0
20403448:	00008067          	ret
      return -1;
2040344c:	fff00513          	li	a0,-1
}
20403450:	00008067          	ret

20403454 <__call_exitprocs>:
 * otherwise only the handlers from that DSO are called.
 */

void 
__call_exitprocs (int code, void *d)
{
20403454:	fd010113          	addi	sp,sp,-48
20403458:	800007b7          	lui	a5,0x80000
2040345c:	01812423          	sw	s8,8(sp)
  __lock_acquire_recursive(__atexit_recursive_mutex);
#endif

 restart:

  p = _GLOBAL_ATEXIT;
20403460:	4287ac03          	lw	s8,1064(a5) # 80000428 <_sp+0xffffc428>
{
20403464:	01312e23          	sw	s3,28(sp)
20403468:	01412c23          	sw	s4,24(sp)
2040346c:	01512a23          	sw	s5,20(sp)
20403470:	01612823          	sw	s6,16(sp)
20403474:	02112623          	sw	ra,44(sp)
20403478:	02812423          	sw	s0,40(sp)
2040347c:	02912223          	sw	s1,36(sp)
20403480:	03212023          	sw	s2,32(sp)
20403484:	01712623          	sw	s7,12(sp)
20403488:	00050a93          	mv	s5,a0
2040348c:	00058b13          	mv	s6,a1
#endif
      for (n = p->_ind - 1; n >= 0; n--)
	{
	  int ind;

	  i = 1 << n;
20403490:	00100a13          	li	s4,1
      for (n = p->_ind - 1; n >= 0; n--)
20403494:	fff00993          	li	s3,-1
  p = _GLOBAL_ATEXIT;
20403498:	148c2903          	lw	s2,328(s8)
  while (p)
2040349c:	02090863          	beqz	s2,204034cc <__call_exitprocs+0x78>
      for (n = p->_ind - 1; n >= 0; n--)
204034a0:	00492483          	lw	s1,4(s2)
204034a4:	fff48413          	addi	s0,s1,-1
204034a8:	02044263          	bltz	s0,204034cc <__call_exitprocs+0x78>
204034ac:	00249493          	slli	s1,s1,0x2
204034b0:	009904b3          	add	s1,s2,s1

	  /* Skip functions not from this dso.  */
	  if (d && (!args || args->_dso_handle[n] != d))
204034b4:	040b0463          	beqz	s6,204034fc <__call_exitprocs+0xa8>
204034b8:	1044a783          	lw	a5,260(s1)
204034bc:	05678063          	beq	a5,s6,204034fc <__call_exitprocs+0xa8>
      for (n = p->_ind - 1; n >= 0; n--)
204034c0:	fff40413          	addi	s0,s0,-1
204034c4:	ffc48493          	addi	s1,s1,-4
204034c8:	ff3416e3          	bne	s0,s3,204034b4 <__call_exitprocs+0x60>
    }
#ifndef __SINGLE_THREAD__
  __lock_release_recursive(__atexit_recursive_mutex);
#endif

}
204034cc:	02c12083          	lw	ra,44(sp)
204034d0:	02812403          	lw	s0,40(sp)
204034d4:	02412483          	lw	s1,36(sp)
204034d8:	02012903          	lw	s2,32(sp)
204034dc:	01c12983          	lw	s3,28(sp)
204034e0:	01812a03          	lw	s4,24(sp)
204034e4:	01412a83          	lw	s5,20(sp)
204034e8:	01012b03          	lw	s6,16(sp)
204034ec:	00c12b83          	lw	s7,12(sp)
204034f0:	00812c03          	lw	s8,8(sp)
204034f4:	03010113          	addi	sp,sp,48
204034f8:	00008067          	ret
	  if (n == p->_ind - 1)
204034fc:	00492783          	lw	a5,4(s2)
	  fn = p->_fns[n];
20403500:	0044a683          	lw	a3,4(s1)
	  if (n == p->_ind - 1)
20403504:	fff78793          	addi	a5,a5,-1
20403508:	04878a63          	beq	a5,s0,2040355c <__call_exitprocs+0x108>
	    p->_fns[n] = NULL;
2040350c:	0004a223          	sw	zero,4(s1)
	  if (!fn)
20403510:	fa0688e3          	beqz	a3,204034c0 <__call_exitprocs+0x6c>
	  if (!args || (args->_fntypes & i) == 0)
20403514:	18892783          	lw	a5,392(s2)
	  i = 1 << n;
20403518:	008a1733          	sll	a4,s4,s0
	  ind = p->_ind;
2040351c:	00492b83          	lw	s7,4(s2)
	  if (!args || (args->_fntypes & i) == 0)
20403520:	00f777b3          	and	a5,a4,a5
20403524:	00079e63          	bnez	a5,20403540 <__call_exitprocs+0xec>
	    fn ();
20403528:	000680e7          	jalr	a3
	  if (ind != p->_ind || *lastp != p)
2040352c:	00492783          	lw	a5,4(s2)
20403530:	f77794e3          	bne	a5,s7,20403498 <__call_exitprocs+0x44>
20403534:	148c2783          	lw	a5,328(s8)
20403538:	f92784e3          	beq	a5,s2,204034c0 <__call_exitprocs+0x6c>
2040353c:	f5dff06f          	j	20403498 <__call_exitprocs+0x44>
	  else if ((args->_is_cxa & i) == 0)
20403540:	18c92783          	lw	a5,396(s2)
20403544:	0844a583          	lw	a1,132(s1)
20403548:	00f77733          	and	a4,a4,a5
2040354c:	00071c63          	bnez	a4,20403564 <__call_exitprocs+0x110>
	    (*((void (*)(int, void *)) fn))(code, args->_fnargs[n]);
20403550:	000a8513          	mv	a0,s5
20403554:	000680e7          	jalr	a3
20403558:	fd5ff06f          	j	2040352c <__call_exitprocs+0xd8>
	    p->_ind--;
2040355c:	00892223          	sw	s0,4(s2)
20403560:	fb1ff06f          	j	20403510 <__call_exitprocs+0xbc>
	    (*((void (*)(void *)) fn))(args->_fnargs[n]);
20403564:	00058513          	mv	a0,a1
20403568:	000680e7          	jalr	a3
2040356c:	fc1ff06f          	j	2040352c <__call_exitprocs+0xd8>

20403570 <_exit>:

static inline long
__internal_syscall(long n, long _a0, long _a1, long _a2, long _a3, long _a4, long _a5)
{
  register long a0 asm("a0") = _a0;
  register long a1 asm("a1") = _a1;
20403570:	00000593          	li	a1,0
  register long a2 asm("a2") = _a2;
20403574:	00000613          	li	a2,0
  register long a3 asm("a3") = _a3;
20403578:	00000693          	li	a3,0
  register long a4 asm("a4") = _a4;
2040357c:	00000713          	li	a4,0
  register long a5 asm("a5") = _a5;
20403580:	00000793          	li	a5,0

#ifdef __riscv_32e
  register long syscall_id asm("t0") = n;
#else
  register long syscall_id asm("a7") = n;
20403584:	05d00893          	li	a7,93
#endif

  asm volatile ("scall"
20403588:	00000073          	ecall
		: "+r"(a0) : "r"(a1), "r"(a2), "r"(a3), "r"(a4), "r"(a5), "r"(syscall_id));

  if (a0 < 0)
2040358c:	00054463          	bltz	a0,20403594 <_exit+0x24>
/* Exit a program without cleaning up files.  */
void
_exit(int exit_status)
{
  syscall_errno (SYS_exit, exit_status, 0, 0, 0, 0, 0);
  while (1);
20403590:	0000006f          	j	20403590 <_exit+0x20>
{
20403594:	ff010113          	addi	sp,sp,-16
20403598:	00812423          	sw	s0,8(sp)
2040359c:	00050413          	mv	s0,a0
204035a0:	00112623          	sw	ra,12(sp)
  errno = -a0;
204035a4:	40800433          	neg	s0,s0
204035a8:	00c000ef          	jal	ra,204035b4 <__errno>
204035ac:	00852023          	sw	s0,0(a0)
  while (1);
204035b0:	0000006f          	j	204035b0 <_exit+0x40>

204035b4 <__errno>:
#ifndef _REENT_ONLY

int *
__errno ()
{
  return &_REENT->_errno;
204035b4:	800007b7          	lui	a5,0x80000
}
204035b8:	4347a503          	lw	a0,1076(a5) # 80000434 <_sp+0xffffc434>
204035bc:	00008067          	ret

204035c0 <__divdi3>:

#ifdef L_divdi3
DWtype
__divdi3 (DWtype u, DWtype v)
{
  Wtype c = 0;
204035c0:	00000313          	li	t1,0
  DWunion uu = {.ll = u};
  DWunion vv = {.ll = v};
  DWtype w;

  if (uu.s.high < 0)
204035c4:	0005dc63          	bgez	a1,204035dc <__divdi3+0x1c>
    c = ~c,
    uu.ll = -uu.ll;
204035c8:	40a00533          	neg	a0,a0
204035cc:	00a03833          	snez	a6,a0
204035d0:	40b00733          	neg	a4,a1
204035d4:	410705b3          	sub	a1,a4,a6
    c = ~c,
204035d8:	fff00313          	li	t1,-1
  if (vv.s.high < 0)
204035dc:	0006dc63          	bgez	a3,204035f4 <__divdi3+0x34>
    c = ~c,
    vv.ll = -vv.ll;
204035e0:	40c00633          	neg	a2,a2
204035e4:	00c037b3          	snez	a5,a2
204035e8:	40d006b3          	neg	a3,a3
    c = ~c,
204035ec:	fff34313          	not	t1,t1
    vv.ll = -vv.ll;
204035f0:	40f686b3          	sub	a3,a3,a5
  d0 = dd.s.low;
204035f4:	00060813          	mv	a6,a2
  d1 = dd.s.high;
204035f8:	00068713          	mv	a4,a3
  n0 = nn.s.low;
204035fc:	00050893          	mv	a7,a0
  n1 = nn.s.high;
20403600:	00058e13          	mv	t3,a1
  if (d1 == 0)
20403604:	2a069263          	bnez	a3,204038a8 <__divdi3+0x2e8>
      if (d0 > n1)
20403608:	204046b7          	lui	a3,0x20404
2040360c:	b5068693          	addi	a3,a3,-1200 # 20403b50 <__clz_tab>
20403610:	0ec5f663          	bleu	a2,a1,204036fc <__divdi3+0x13c>
	  count_leading_zeros (bm, d0);
20403614:	000107b7          	lui	a5,0x10
20403618:	0cf67863          	bleu	a5,a2,204036e8 <__divdi3+0x128>
2040361c:	0ff00e93          	li	t4,255
20403620:	00cebeb3          	sltu	t4,t4,a2
20403624:	003e9e93          	slli	t4,t4,0x3
20403628:	01d657b3          	srl	a5,a2,t4
2040362c:	00f686b3          	add	a3,a3,a5
20403630:	0006c783          	lbu	a5,0(a3)
20403634:	01d78eb3          	add	t4,a5,t4
20403638:	02000793          	li	a5,32
2040363c:	41d787b3          	sub	a5,a5,t4
	  if (bm != 0)
20403640:	00078c63          	beqz	a5,20403658 <__divdi3+0x98>
	      n1 = (n1 << bm) | (n0 >> (W_TYPE_SIZE - bm));
20403644:	00f59733          	sll	a4,a1,a5
20403648:	01d55eb3          	srl	t4,a0,t4
	      d0 = d0 << bm;
2040364c:	00f61833          	sll	a6,a2,a5
	      n1 = (n1 << bm) | (n0 >> (W_TYPE_SIZE - bm));
20403650:	00eeee33          	or	t3,t4,a4
	      n0 = n0 << bm;
20403654:	00f518b3          	sll	a7,a0,a5
	  udiv_qrnnd (q0, n0, n1, n0, d0);
20403658:	01085613          	srli	a2,a6,0x10
2040365c:	02ce77b3          	remu	a5,t3,a2
20403660:	01081593          	slli	a1,a6,0x10
20403664:	0105d593          	srli	a1,a1,0x10
20403668:	0108d693          	srli	a3,a7,0x10
2040366c:	02ce5e33          	divu	t3,t3,a2
20403670:	01079793          	slli	a5,a5,0x10
20403674:	00d7e6b3          	or	a3,a5,a3
20403678:	03c58733          	mul	a4,a1,t3
2040367c:	000e0793          	mv	a5,t3
20403680:	00e6fe63          	bleu	a4,a3,2040369c <__divdi3+0xdc>
20403684:	010686b3          	add	a3,a3,a6
20403688:	fffe0793          	addi	a5,t3,-1
2040368c:	0106e863          	bltu	a3,a6,2040369c <__divdi3+0xdc>
20403690:	00e6f663          	bleu	a4,a3,2040369c <__divdi3+0xdc>
20403694:	ffee0793          	addi	a5,t3,-2
20403698:	010686b3          	add	a3,a3,a6
2040369c:	40e686b3          	sub	a3,a3,a4
204036a0:	02c6f733          	remu	a4,a3,a2
204036a4:	01089893          	slli	a7,a7,0x10
204036a8:	0108d893          	srli	a7,a7,0x10
204036ac:	02c6d6b3          	divu	a3,a3,a2
204036b0:	01071713          	slli	a4,a4,0x10
204036b4:	011768b3          	or	a7,a4,a7
204036b8:	02d585b3          	mul	a1,a1,a3
204036bc:	00068513          	mv	a0,a3
204036c0:	00b8fc63          	bleu	a1,a7,204036d8 <__divdi3+0x118>
204036c4:	011808b3          	add	a7,a6,a7
204036c8:	fff68513          	addi	a0,a3,-1
204036cc:	0108e663          	bltu	a7,a6,204036d8 <__divdi3+0x118>
204036d0:	00b8f463          	bleu	a1,a7,204036d8 <__divdi3+0x118>
204036d4:	ffe68513          	addi	a0,a3,-2
204036d8:	01079793          	slli	a5,a5,0x10
204036dc:	00a7e7b3          	or	a5,a5,a0
	      q1 = 0;
204036e0:	00000e13          	li	t3,0
204036e4:	0e40006f          	j	204037c8 <__divdi3+0x208>
	  count_leading_zeros (bm, d0);
204036e8:	010007b7          	lui	a5,0x1000
204036ec:	01000e93          	li	t4,16
204036f0:	f2f66ce3          	bltu	a2,a5,20403628 <__divdi3+0x68>
204036f4:	01800e93          	li	t4,24
204036f8:	f31ff06f          	j	20403628 <__divdi3+0x68>
	  if (d0 == 0)
204036fc:	00061663          	bnez	a2,20403708 <__divdi3+0x148>
	    d0 = 1 / d0;	/* Divide intentionally by zero.  */
20403700:	00100813          	li	a6,1
20403704:	02e85833          	divu	a6,a6,a4
	  count_leading_zeros (bm, d0);
20403708:	000107b7          	lui	a5,0x10
2040370c:	0cf87e63          	bleu	a5,a6,204037e8 <__divdi3+0x228>
20403710:	0ff00793          	li	a5,255
20403714:	0107f463          	bleu	a6,a5,2040371c <__divdi3+0x15c>
20403718:	00800713          	li	a4,8
2040371c:	00e857b3          	srl	a5,a6,a4
20403720:	00f686b3          	add	a3,a3,a5
20403724:	0006c783          	lbu	a5,0(a3)
20403728:	02000693          	li	a3,32
2040372c:	00e787b3          	add	a5,a5,a4
20403730:	40f686b3          	sub	a3,a3,a5
	  if (bm == 0)
20403734:	0c069463          	bnez	a3,204037fc <__divdi3+0x23c>
	      n1 -= d0;
20403738:	41058733          	sub	a4,a1,a6
	      q1 = 1;
2040373c:	00100e13          	li	t3,1
	  udiv_qrnnd (q0, n0, n1, n0, d0);
20403740:	01085613          	srli	a2,a6,0x10
20403744:	01081593          	slli	a1,a6,0x10
20403748:	0105d593          	srli	a1,a1,0x10
2040374c:	0108d693          	srli	a3,a7,0x10
20403750:	02c777b3          	remu	a5,a4,a2
20403754:	02c75733          	divu	a4,a4,a2
20403758:	01079793          	slli	a5,a5,0x10
2040375c:	00d7e6b3          	or	a3,a5,a3
20403760:	02e58533          	mul	a0,a1,a4
20403764:	00070793          	mv	a5,a4
20403768:	00a6fe63          	bleu	a0,a3,20403784 <__divdi3+0x1c4>
2040376c:	010686b3          	add	a3,a3,a6
20403770:	fff70793          	addi	a5,a4,-1
20403774:	0106e863          	bltu	a3,a6,20403784 <__divdi3+0x1c4>
20403778:	00a6f663          	bleu	a0,a3,20403784 <__divdi3+0x1c4>
2040377c:	ffe70793          	addi	a5,a4,-2
20403780:	010686b3          	add	a3,a3,a6
20403784:	40a686b3          	sub	a3,a3,a0
20403788:	02c6f733          	remu	a4,a3,a2
2040378c:	01089893          	slli	a7,a7,0x10
20403790:	0108d893          	srli	a7,a7,0x10
20403794:	02c6d6b3          	divu	a3,a3,a2
20403798:	01071713          	slli	a4,a4,0x10
2040379c:	011768b3          	or	a7,a4,a7
204037a0:	02d585b3          	mul	a1,a1,a3
204037a4:	00068513          	mv	a0,a3
204037a8:	00b8fc63          	bleu	a1,a7,204037c0 <__divdi3+0x200>
204037ac:	011808b3          	add	a7,a6,a7
204037b0:	fff68513          	addi	a0,a3,-1
204037b4:	0108e663          	bltu	a7,a6,204037c0 <__divdi3+0x200>
204037b8:	00b8f463          	bleu	a1,a7,204037c0 <__divdi3+0x200>
204037bc:	ffe68513          	addi	a0,a3,-2
204037c0:	01079793          	slli	a5,a5,0x10
204037c4:	00a7e7b3          	or	a5,a5,a0
  return ww.ll;
204037c8:	00078513          	mv	a0,a5
204037cc:	000e0593          	mv	a1,t3

  w = __udivmoddi4 (uu.ll, vv.ll, (UDWtype *) 0);
  if (c)
204037d0:	00030a63          	beqz	t1,204037e4 <__divdi3+0x224>
    w = -w;
204037d4:	40f00533          	neg	a0,a5
204037d8:	00a037b3          	snez	a5,a0
204037dc:	41c005b3          	neg	a1,t3
204037e0:	40f585b3          	sub	a1,a1,a5

  return w;
}
204037e4:	00008067          	ret
	  count_leading_zeros (bm, d0);
204037e8:	010007b7          	lui	a5,0x1000
204037ec:	01000713          	li	a4,16
204037f0:	f2f866e3          	bltu	a6,a5,2040371c <__divdi3+0x15c>
204037f4:	01800713          	li	a4,24
204037f8:	f25ff06f          	j	2040371c <__divdi3+0x15c>
	      d0 = d0 << bm;
204037fc:	00d81833          	sll	a6,a6,a3
	      n2 = n1 >> b;
20403800:	00f5deb3          	srl	t4,a1,a5
	      n0 = n0 << bm;
20403804:	00d518b3          	sll	a7,a0,a3
	      n1 = (n1 << bm) | (n0 >> b);
20403808:	00f557b3          	srl	a5,a0,a5
	      udiv_qrnnd (q1, n1, n2, n1, d0);
2040380c:	01085513          	srli	a0,a6,0x10
	      n1 = (n1 << bm) | (n0 >> b);
20403810:	00d59733          	sll	a4,a1,a3
	      udiv_qrnnd (q1, n1, n2, n1, d0);
20403814:	02aed5b3          	divu	a1,t4,a0
	      n1 = (n1 << bm) | (n0 >> b);
20403818:	00e7e633          	or	a2,a5,a4
	      udiv_qrnnd (q1, n1, n2, n1, d0);
2040381c:	01081713          	slli	a4,a6,0x10
20403820:	01075713          	srli	a4,a4,0x10
20403824:	01065793          	srli	a5,a2,0x10
20403828:	02aef6b3          	remu	a3,t4,a0
2040382c:	00058e13          	mv	t3,a1
20403830:	02b70eb3          	mul	t4,a4,a1
20403834:	01069693          	slli	a3,a3,0x10
20403838:	00f6e7b3          	or	a5,a3,a5
2040383c:	01d7fe63          	bleu	t4,a5,20403858 <__divdi3+0x298>
20403840:	010787b3          	add	a5,a5,a6
20403844:	fff58e13          	addi	t3,a1,-1
20403848:	0107e863          	bltu	a5,a6,20403858 <__divdi3+0x298>
2040384c:	01d7f663          	bleu	t4,a5,20403858 <__divdi3+0x298>
20403850:	ffe58e13          	addi	t3,a1,-2
20403854:	010787b3          	add	a5,a5,a6
20403858:	41d787b3          	sub	a5,a5,t4
2040385c:	02a7f5b3          	remu	a1,a5,a0
20403860:	01061613          	slli	a2,a2,0x10
20403864:	01065613          	srli	a2,a2,0x10
20403868:	02a7d7b3          	divu	a5,a5,a0
2040386c:	01059593          	slli	a1,a1,0x10
20403870:	00c5e5b3          	or	a1,a1,a2
20403874:	02f70733          	mul	a4,a4,a5
20403878:	00078693          	mv	a3,a5
2040387c:	00e5fe63          	bleu	a4,a1,20403898 <__divdi3+0x2d8>
20403880:	010585b3          	add	a1,a1,a6
20403884:	fff78693          	addi	a3,a5,-1 # ffffff <__stack_size+0xfff7ff>
20403888:	0105e863          	bltu	a1,a6,20403898 <__divdi3+0x2d8>
2040388c:	00e5f663          	bleu	a4,a1,20403898 <__divdi3+0x2d8>
20403890:	ffe78693          	addi	a3,a5,-2
20403894:	010585b3          	add	a1,a1,a6
20403898:	010e1e13          	slli	t3,t3,0x10
2040389c:	40e58733          	sub	a4,a1,a4
204038a0:	00de6e33          	or	t3,t3,a3
204038a4:	e9dff06f          	j	20403740 <__divdi3+0x180>
      if (d1 > n1)
204038a8:	18d5e663          	bltu	a1,a3,20403a34 <__divdi3+0x474>
	  count_leading_zeros (bm, d1);
204038ac:	000107b7          	lui	a5,0x10
204038b0:	04f6f463          	bleu	a5,a3,204038f8 <__divdi3+0x338>
204038b4:	0ff00813          	li	a6,255
204038b8:	00d838b3          	sltu	a7,a6,a3
204038bc:	00389893          	slli	a7,a7,0x3
204038c0:	20404737          	lui	a4,0x20404
204038c4:	0116d7b3          	srl	a5,a3,a7
204038c8:	b5070713          	addi	a4,a4,-1200 # 20403b50 <__clz_tab>
204038cc:	00e787b3          	add	a5,a5,a4
204038d0:	0007c803          	lbu	a6,0(a5) # 10000 <__stack_size+0xf800>
204038d4:	02000e13          	li	t3,32
204038d8:	01180833          	add	a6,a6,a7
204038dc:	410e0e33          	sub	t3,t3,a6
	  if (bm == 0)
204038e0:	020e1663          	bnez	t3,2040390c <__divdi3+0x34c>
		  q0 = 1;
204038e4:	00100793          	li	a5,1
	      if (n1 > d1 || n0 >= d0)
204038e8:	eeb6e0e3          	bltu	a3,a1,204037c8 <__divdi3+0x208>
204038ec:	00c53633          	sltu	a2,a0,a2
204038f0:	00164793          	xori	a5,a2,1
204038f4:	ed5ff06f          	j	204037c8 <__divdi3+0x208>
	  count_leading_zeros (bm, d1);
204038f8:	010007b7          	lui	a5,0x1000
204038fc:	01000893          	li	a7,16
20403900:	fcf6e0e3          	bltu	a3,a5,204038c0 <__divdi3+0x300>
20403904:	01800893          	li	a7,24
20403908:	fb9ff06f          	j	204038c0 <__divdi3+0x300>
	      d1 = (d1 << bm) | (d0 >> b);
2040390c:	010657b3          	srl	a5,a2,a6
20403910:	01c696b3          	sll	a3,a3,t3
20403914:	00d7e6b3          	or	a3,a5,a3
	      udiv_qrnnd (q0, n1, n2, n1, d1);
20403918:	0106df13          	srli	t5,a3,0x10
	      n2 = n1 >> b;
2040391c:	0105d7b3          	srl	a5,a1,a6
	      udiv_qrnnd (q0, n1, n2, n1, d1);
20403920:	03e7f8b3          	remu	a7,a5,t5
20403924:	01069e93          	slli	t4,a3,0x10
20403928:	010ede93          	srli	t4,t4,0x10
	      n1 = (n1 << bm) | (n0 >> b);
2040392c:	01c59733          	sll	a4,a1,t3
20403930:	01055833          	srl	a6,a0,a6
20403934:	00e86733          	or	a4,a6,a4
	      udiv_qrnnd (q0, n1, n2, n1, d1);
20403938:	01075813          	srli	a6,a4,0x10
	      d0 = d0 << bm;
2040393c:	01c61633          	sll	a2,a2,t3
	      udiv_qrnnd (q0, n1, n2, n1, d1);
20403940:	03e7d7b3          	divu	a5,a5,t5
20403944:	01089893          	slli	a7,a7,0x10
20403948:	0108e833          	or	a6,a7,a6
2040394c:	02fe8fb3          	mul	t6,t4,a5
20403950:	00078593          	mv	a1,a5
20403954:	01f87e63          	bleu	t6,a6,20403970 <__divdi3+0x3b0>
20403958:	00d80833          	add	a6,a6,a3
2040395c:	fff78593          	addi	a1,a5,-1 # ffffff <__stack_size+0xfff7ff>
20403960:	00d86863          	bltu	a6,a3,20403970 <__divdi3+0x3b0>
20403964:	01f87663          	bleu	t6,a6,20403970 <__divdi3+0x3b0>
20403968:	ffe78593          	addi	a1,a5,-2
2040396c:	00d80833          	add	a6,a6,a3
20403970:	41f80833          	sub	a6,a6,t6
20403974:	03e878b3          	remu	a7,a6,t5
20403978:	01071713          	slli	a4,a4,0x10
2040397c:	01075713          	srli	a4,a4,0x10
20403980:	03e85833          	divu	a6,a6,t5
20403984:	01089893          	slli	a7,a7,0x10
20403988:	00e8e733          	or	a4,a7,a4
2040398c:	030e8eb3          	mul	t4,t4,a6
20403990:	00080793          	mv	a5,a6
20403994:	01d77e63          	bleu	t4,a4,204039b0 <__divdi3+0x3f0>
20403998:	00d70733          	add	a4,a4,a3
2040399c:	fff80793          	addi	a5,a6,-1 # 2ffff <__stack_size+0x2f7ff>
204039a0:	00d76863          	bltu	a4,a3,204039b0 <__divdi3+0x3f0>
204039a4:	01d77663          	bleu	t4,a4,204039b0 <__divdi3+0x3f0>
204039a8:	ffe80793          	addi	a5,a6,-2
204039ac:	00d70733          	add	a4,a4,a3
204039b0:	01059593          	slli	a1,a1,0x10
	      umul_ppmm (m1, m0, q0, d0);
204039b4:	00010f37          	lui	t5,0x10
	      udiv_qrnnd (q0, n1, n2, n1, d1);
204039b8:	00f5e7b3          	or	a5,a1,a5
	      umul_ppmm (m1, m0, q0, d0);
204039bc:	ffff0593          	addi	a1,t5,-1 # ffff <__stack_size+0xf7ff>
204039c0:	00b7f8b3          	and	a7,a5,a1
204039c4:	0107d813          	srli	a6,a5,0x10
204039c8:	00b675b3          	and	a1,a2,a1
204039cc:	01065613          	srli	a2,a2,0x10
	      udiv_qrnnd (q0, n1, n2, n1, d1);
204039d0:	41d70733          	sub	a4,a4,t4
	      umul_ppmm (m1, m0, q0, d0);
204039d4:	02b88eb3          	mul	t4,a7,a1
204039d8:	02b805b3          	mul	a1,a6,a1
204039dc:	010ed693          	srli	a3,t4,0x10
204039e0:	02c888b3          	mul	a7,a7,a2
204039e4:	00b888b3          	add	a7,a7,a1
204039e8:	011686b3          	add	a3,a3,a7
204039ec:	02c80833          	mul	a6,a6,a2
204039f0:	00b6f463          	bleu	a1,a3,204039f8 <__divdi3+0x438>
204039f4:	01e80833          	add	a6,a6,t5
204039f8:	0106d613          	srli	a2,a3,0x10
204039fc:	01060833          	add	a6,a2,a6
	      if (m1 > n1 || (m1 == n1 && m0 > n0))
20403a00:	03076663          	bltu	a4,a6,20403a2c <__divdi3+0x46c>
20403a04:	cd071ee3          	bne	a4,a6,204036e0 <__divdi3+0x120>
	      umul_ppmm (m1, m0, q0, d0);
20403a08:	00010737          	lui	a4,0x10
20403a0c:	fff70713          	addi	a4,a4,-1 # ffff <__stack_size+0xf7ff>
20403a10:	00e6f6b3          	and	a3,a3,a4
20403a14:	01069693          	slli	a3,a3,0x10
20403a18:	00eefeb3          	and	t4,t4,a4
	      n0 = n0 << bm;
20403a1c:	01c51533          	sll	a0,a0,t3
	      umul_ppmm (m1, m0, q0, d0);
20403a20:	01d686b3          	add	a3,a3,t4
	      q1 = 0;
20403a24:	00000e13          	li	t3,0
	      if (m1 > n1 || (m1 == n1 && m0 > n0))
20403a28:	dad570e3          	bleu	a3,a0,204037c8 <__divdi3+0x208>
		  q0--;
20403a2c:	fff78793          	addi	a5,a5,-1
		  sub_ddmmss (m1, m0, m1, m0, d1, d0);
20403a30:	cb1ff06f          	j	204036e0 <__divdi3+0x120>
	  q1 = 0;
20403a34:	00000e13          	li	t3,0
	  q0 = 0;
20403a38:	00000793          	li	a5,0
20403a3c:	d8dff06f          	j	204037c8 <__divdi3+0x208>
